(dp1
S'body'
p2
(dp3
S'type'
p4
S'text'
p5
sS'sortable'
p6
I5
sS'sql'
p7
S'TEXT'
p8
ssS'persona'
p9
(dp10
g4
S'string'
p11
sg6
I3
sg7
S'CHAR(512)'
p12
ssS'email'
p13
(dp14
g4
g11
sg6
I4
sg7
S'CHAR(512)'
p15
ssS'rate'
p16
(dp17
g4
S'integer'
p18
sg6
I6
sg7
S'INTEGER'
p19
ssS'articulo'
p20
(dp21
g4
S'reference articulo'
p22
sg6
I2
sg7
S'INTEGER REFERENCES articulo(articulo_id) ON DELETE CASCADE'
p23
ssS'id'
p24
(dp25
g4
g24
sg6
I1
sg7
S'INTEGER PRIMARY KEY AUTOINCREMENT'
p26
ss.