(dp1
S'estado_transp_id'
p2
(dp3
S'type'
p4
S'reference transporte'
p5
sS'sortable'
p6
I2
sS'sql'
p7
S'INTEGER REFERENCES transporte(transporte_id) ON DELETE CASCADE'
p8
ssS'estado_transporte'
p9
(dp10
g4
S'string'
p11
sg6
I4
sg7
S'CHAR(512)'
p12
ssS'id'
p13
(dp14
g4
g13
sg6
I1
sg7
S'INTEGER PRIMARY KEY AUTOINCREMENT'
p15
ssS'fecha_alta'
p16
(dp17
g4
S'datetime'
p18
sg6
I3
sg7
S'TIMESTAMP'
p19
ss.