(dp1
S'producto'
p2
(dp3
S'type'
p4
S'reference articulo'
p5
sS'sortable'
p6
I2
sS'sql'
p7
S'INTEGER REFERENCES articulo(articulo_id) ON DELETE CASCADE'
p8
ssS'descripcion'
p9
(dp10
g4
S'string'
p11
sg6
I3
sg7
S'CHAR(512)'
p12
ssS'precio'
p13
(dp14
g4
S'double'
p15
sg6
I4
sg7
S'DOUBLE'
p16
ssS'id'
p17
(dp18
g4
g17
sg6
I1
sg7
S'INTEGER PRIMARY KEY AUTOINCREMENT'
p19
ss.