(dp1
S'output'
p2
S"<type 'exceptions.IndexError'> list index out of range"
p3
sS'layer'
p4
S'/home/angel/web2py/applications/FINAL/controllers/pedido.py'
p5
sS'code'
p6
S'def index():\r\n    if not auth.user_id:\r\n        redirect(URL(r=request, c="default", f="prohibido"))\r\n    \r\n    # SELECCIONA EL LAYOUT SEGUN EL USUARIO QUE SEA\r\n    esqueleto=\'skel.html\'\r\n    if auth.has_membership (group_id=3):\r\n        esqueleto=\' layout_gestionar.html\'\r\n    elif auth.has_membership (group_id=5):\r\n        esqueleto=\'layout_pedido.html\'\r\n    return dict(esqueleto = esqueleto)\r\ndef show():  \r\n    images = db.transporte(request.args(0)) or redirect(URL(\'mostrar_categarias\')).select(\r\n    imges.nro_motor,\r\n    images.modelo,\r\n    images.odometro_adquisicion,\r\n    images.marca,\r\n    images.tipo,\r\n    images.seguro_compania,\r\n    images.capacidad_carga\r\n    )\r\n    return dict(images=images)  \r\n        \r\ndef download():\r\n    return response.download(request, db)\r\n\r\ndef pedido():\r\n\r\n\r\n    lista_pedidos = db(\r\n    (db.sale.buyer>0) & \r\n    (db.sale.asignar_chofer!=None) & \r\n    (db.sale.product==db.articulo.nombre) &    \r\n#    (db.sale.product!=None) &\r\n    (db.sale.asignar_transporte!=None)\r\n    ).select(\r\n    db.sale.id,\r\n    db.sale.fecha_de_pedido,\r\n    db.sale.product,   \r\n    db.sale.estado_pedido,\r\n\r\n    db.sale.shipping_city,    \r\n    orderby=db.sale.estado_pedido,)\r\n    \r\n    lista_pedidos_incompletos = db((db.sale.asignar_chofer==None) & (db.sale.asignar_transporte==None)).select(\r\n    db.sale.id,\r\n    db.sale.fecha_de_pedido, \r\n    db.sale.product,\r\n    db.sale.estado_pedido,\r\n    db.sale.shipping_city, \r\n    db.sale.estado_pedido,\r\n    orderby=db.sale.fecha_de_pedido,)\r\n    \r\n#    lista_pedidos_cliente = db(db.sale.buyer==auth.user_id).select(\r\n#    db.sale.id,\r\n#    db.sale.fecha_de_pedido,\r\n#     db.sale.puerta_partida,\r\n#    db.sale.estado_pedido,\r\n#    orderby=db.sale.estado_pedido,)\r\n    \r\n#    lista_pedidos_chofer = db(db.sale.buyer==auth.user_id).select(\r\n#    db.sale.id,\r\n #   db.sale.fecha_de_pedido,\r\n#    db.sale.puerta_partida,\r\n#    db.sale.shipping_date,\r\n#    db.sale.asignar_transporte,\r\n#    db.sale.buyer,\r\n#    db.sale.asignar_chofer,    \r\n #   db.sale.estado_pedido,\r\n#    orderby=db.sale.estado_pedido,)\r\n    \r\n    return {\'lista_pedidos\' : lista_pedidos, \'lista_pedidos_incompletos\' : lista_pedidos_incompletos}\r\n\r\n############################################################################################################\r\n\r\n############################################################################################################\r\ndef registrar_pedido_cliente():\r\n\r\n    \r\n    # FORM 2 es el formulario que le falta CHOFER Y COCHE, lo utiliza solo el CLIENTE \r\n    form = SQLFORM.factory(\r\n        Field("fecha_pedido", \'datetime\',default=request.now, writable=False, readable=True),\r\n        Field("estado_pedido",label=T(\'Estado del pedido\'),default=\'Pendiente\', writable=False, readable=False),\r\n        Field("cliente_id", db.auth_user, default=auth.user_id, writable=False, readable=False,\r\n        requires = IS_IN_DB(db, db.auth_user.id,)),\r\n        Field("fecha_viaje", \'datetime\'),\r\n        Field("coche_id", db.coche, default=\'0\', writable=False, readable=False),\r\n        Field("localidad_id_partida", db.localidad,\r\n        requires = IS_IN_DB(db, db.localidad.id, "%(nombre_localidad)s - (%(id)s)" )),\r\n        Field("calle_partida", db.calle,\r\n        requires = IS_IN_DB(db, db.calle.id, "%(nombre_calle)s")),\r\n        Field("nro_calle_partida"),\r\n        Field("entrecalle1_partida", db.calle,\r\n        requires = IS_IN_DB(db, db.calle.id, "%(nombre_calle)s")),\r\n        Field("entrecalle2_partida", db.calle,\r\n        requires = IS_IN_DB(db, db.calle.id, "%(nombre_calle)s")),\r\n        Field("localidad_id_destino", db.localidad,\r\n        requires = IS_IN_DB(db, db.localidad.id, "%(nombre_localidad)s - (%(id)s)" )),\r\n        Field("calle_destino", db.calle,\r\n        requires = IS_IN_DB(db, db.calle.id, "%(nombre_calle)s")),\r\n        Field("nro_calle_destino"),\r\n        Field("entrecalle1_destino", db.calle,\r\n        requires = IS_IN_DB(db, db.calle.id, "%(nombre_calle)s")),\r\n        Field("entrecalle2_destino", db.calle,\r\n        requires = IS_IN_DB(db, db.calle.id, "%(nombre_calle)s")),\r\n        Field("chofer_id", db.auth_user,default=\'0\', writable=False, readable=False,\r\n        requires = IS_IN_DB(db, db.auth_user.id, "(%(id)s) %(first_name)s %(last_name)s" )),\r\n        submit_button=\'Reservar\')\r\n\r\n    if form.accepts(request.vars, session):\r\n        response.flash = \'Pedido realizado con exito!\'\r\n        db.pedido.insert(\r\n        fecha_viaje=form.vars.fecha_viaje,\r\n        coche_id=form.vars.coche_id,\r\n        localidad_id_partida=form.vars.localidad_id_partida,\r\n        calle_partida=form.vars.calle_partida,\r\n        nro_calle_partida=form.vars.nro_calle_partida,\r\n        entrecalle1_partida=form.vars.entrecalle1_partida,\r\n        entrecalle2_partida=form.vars.entrecalle2_partida,\r\n        localidad_id_destino=form.vars.localidad_id_destino,\r\n        calle_destino=form.vars.calle_destino,\r\n        nro_calle_destino=form.vars.nro_calle_destino,\r\n        entrecalle1_destino=form.vars.entrecalle1_destino,\r\n        entrecalle2_destino=form.vars.entrecalle2_destino,\r\n        chofer_id=form.vars.chofer_id,\r\n        )\r\n    elif form.errors:\r\n        response.flash = \'Hay errores, por favor corrijalos.\'\r\n        \r\n    return dict(form=form,esqueleto=esqueleto, nombre=nombre)    \r\n############################################################################################################\r\n\r\ndef fecha_viaje():       \r\n    \r\n    # Begin: BUSCADOR\r\n    import datetime\r\n    \r\n    # FORMULARIO PARA INGRESAR DATOS\r\n    form = SQLFORM.factory(\r\n        Field("fecha1",\'datetime\', label="Fecha Inicial",\r\n        default=datetime.datetime(2000,01,01,23,59,59),\r\n        requires = IS_DATETIME(error_message=(\'No cumple con el formato requerido\'))),\r\n        Field("fecha2",\'datetime\', label="Fecha Final",\r\n        default=datetime.datetime(2020,01,01,23,59,59),\r\n        requires = IS_DATETIME(error_message=(\'No cumple con el formato requerido\'))),\r\n        submit_button=\'Buscar\')\r\n\r\n    if form.accepts(request.vars, session):\r\n        response.flash = \'Busqueda realizada\'\r\n    elif form.errors:\r\n        response.flash = \'Hay errores, por favor corrijalos.\'\r\n    \r\n    # ASIGNA VARIABLES\r\n    fecha1=form.vars.fecha1\r\n    fecha2=form.vars.fecha2\r\n\r\n    # PREGUNTA SI LAS FECHAS ESTAN VACIAS Y LES ASIGNA UN VALOR PARA QUE NO HAYA ERRORES\r\n    if fecha1==None or fecha2==None:\r\n        fecha1="4000-01-01 00:00:00"\r\n        fecha2="4000-01-01 00:00:01"\r\n\r\n    # MUESTRA EL LISTADO DE PEDIDOS SEGUN LOS CAMPOS SOLICITADOS\r\n    buscar_pedidos = db((db.pedido.fecha_viaje>=fecha1) & (db.pedido.fecha_viaje<=fecha2) ).select(\r\n    db.pedido.id,\r\n    db.pedido.fecha_pedido,\r\n    db.pedido.fecha_viaje,\r\n    db.pedido.cliente_id,\r\n    db.pedido.chofer_id,\r\n    db.pedido.localidad_id_partida,\r\n    db.pedido.localidad_id_destino,\r\n    db.pedido.estado_pedido,\r\n    orderby=db.pedido.id,\r\n    )\r\n    return {\'buscar_pedidos\' : buscar_pedidos, \'form\' : form, \'fecha1\' : fecha1, \'fecha2\' : fecha2, \'esqueleto\' : esqueleto}    \r\n    # End: BUSCADOR\r\n\r\n############################################################################################################\r\n\r\ndef fecha_pedido():\r\n    if auth.user_id:\r\n        if auth.has_membership (group_id=1):\r\n            redirect(URL(r=request, c="default", f="prohibido"))  \r\n    else:\r\n        redirect(URL(r=request, c="default", f="prohibido"))\r\n    \r\n    # SELECCIONA EL LAYOUT SEGUN EL USUARIO QUE SEA\r\n    esqueleto=\'layout.html\'\r\n    if auth.has_membership (group_id=2):\r\n        esqueleto=\'layout_admin.html\'\r\n    elif auth.has_membership (group_id=5):\r\n        esqueleto=\'layout_despachador.html\'\r\n    elif auth.has_membership (group_id=3):\r\n        esqueleto=\'layout_cliente.html\'    \r\n    \r\n    # Begin: BUSCADOR\r\n    import datetime\r\n    \r\n    # FORMULARIO PARA INGRESAR DATOS\r\n    form = SQLFORM.factory(\r\n        Field("fecha1",\'datetime\', label="Fecha Inicial",\r\n        default=datetime.datetime(2000,01,01,23,59,59),\r\n        requires = IS_DATETIME(error_message=(\'No cumple con el formato requerido\'))),\r\n        Field("fecha2",\'datetime\', label="Fecha Final",\r\n        default=datetime.datetime(2020,01,01,23,59,59),\r\n        requires = IS_DATETIME(error_message=(\'No cumple con el formato requerido\'))),\r\n        submit_button=\'Buscar\')\r\n\r\n    if form.accepts(request.vars, session):\r\n        response.flash = \'Busqueda realizada\'\r\n    elif form.errors:\r\n        response.flash = \'Hay errores, por favor corrijalos.\'\r\n    \r\n    # ASIGNA VARIABLES\r\n    fecha1=form.vars.fecha1\r\n    fecha2=form.vars.fecha2\r\n\r\n    # PREGUNTA SI LAS FECHAS ESTAN VACIAS Y LES ASIGNA UN VALOR PARA QUE NO HAYA ERRORES\r\n    if fecha1==None or fecha2==None:\r\n        fecha1="4000-01-01 00:00:00"\r\n        fecha2="4000-01-01 00:00:01"\r\n\r\n    # MUESTRA EL LISTADO DE PEDIDOS SEGUN LOS CAMPOS SOLICITADOS\r\n    buscar_pedidos = db((db.pedido.fecha_pedido>=fecha1) & (db.pedido.fecha_pedido<=fecha2) ).select(\r\n    db.pedido.id,\r\n    db.pedido.fecha_pedido,\r\n    db.pedido.fecha_viaje,\r\n    db.pedido.localidad_id_partida,\r\n    db.pedido.localidad_id_destino,\r\n    db.pedido.cliente_id,\r\n    db.pedido.estado_pedido,\r\n    orderby=db.pedido.id,\r\n    )\r\n    return {\'buscar_pedidos\' : buscar_pedidos, \'form\' : form, \'fecha1\' : fecha1, \'fecha2\' : fecha2, \'esqueleto\' : esqueleto}    \r\n    # End: BUSCADOR\r\n\r\n############################################################################################################\r\n\r\ndef coche():\r\n    if auth.user_id:\r\n        if auth.has_membership (group_id=3):\r\n            redirect(URL(r=request, c="default", f="prohibido"))\r\n    else:\r\n        redirect(URL(r=request, c="default", f="prohibido"))\r\n    \r\n    # SELECCIONA EL LAYOUT SEGUN EL USUARIO QUE SEA\r\n    esqueleto=\'layout.html\'\r\n    if auth.has_membership (group_id=2):\r\n        esqueleto=\'layout_admin.html\'\r\n    elif auth.has_membership (group_id=5):\r\n        esqueleto=\'layout_despachador.html\'\r\n    elif auth.has_membership (group_id=1):\r\n        esqueleto=\'layout_chofer.html\'    \r\n    \r\n    # Begin: BUSCADOR\r\n    \r\n    # FORMULARIO PARA INGRESAR DATOS\r\n    form = SQLFORM.factory(\r\n        Field("coche", label="Coche",\r\n        requires = IS_IN_DB(db, db.coche.id, "(%(id)s) %(marca)s %(modelo)s [%(patente)s] %(color)s ")),\r\n        submit_button=\'Buscar\')\r\n\r\n    if form.accepts(request.vars, session):\r\n        response.flash = \'Busqueda realizada\'\r\n    elif form.errors:\r\n        response.flash = \'Hay errores, por favor corrijalos.\'\r\n    \r\n    # ASIGNA VARIABLES\r\n    coche=form.vars.coche\r\n\r\n    # MUESTRA EL LISTADO DE PEDIDOS SEGUN LOS CAMPOS SOLICITADOS\r\n    buscar_pedidos = db(db.pedido.coche_id==coche).select(\r\n    db.pedido.id,\r\n    db.pedido.fecha_pedido,\r\n    db.pedido.fecha_viaje,\r\n    db.pedido.localidad_id_partida,\r\n    db.pedido.localidad_id_destino,\r\n    db.pedido.chofer_id,\r\n    db.pedido.coche_id,\r\n    orderby=db.pedido.id,\r\n    )\r\n    return {\'buscar_pedidos\' : buscar_pedidos, \'form\' : form, \'coche\' : coche, \'esqueleto\' : esqueleto}    \r\n    # End: BUSCADOR\r\n\r\n############################################################################################################\r\n\r\ndef chofer():\r\n    \r\n    # Begin: BUSCADOR\r\n\r\n    # FORMULARIO PARA INGRESAR DATOS\r\n    form = SQLFORM.factory(\r\n        Field("chofer", label="Chofer",\r\n        requires = IS_IN_DB(db, db.auth_user.id, "(%(id)s) %(first_name)s %(last_name)s")),\r\n        submit_button=\'Buscar\')\r\n\r\n    if form.accepts(request.vars, session):\r\n        response.flash = \'Busqueda realizada\'\r\n    elif form.errors:\r\n        response.flash = \'Hay errores, por favor corrijalos.\'\r\n    \r\n    # ASIGNA VARIABLES\r\n    chofer=form.vars.chofer\r\n\r\n    # MUESTRA EL LISTADO DE PEDIDOS SEGUN LOS CAMPOS SOLICITADOS\r\n    buscar_pedidos = db(db.pedido.chofer_id==chofer).select(\r\n    db.pedido.id,\r\n    db.pedido.fecha_pedido,\r\n    db.pedido.fecha_viaje,\r\n    db.pedido.localidad_id_partida,\r\n    db.pedido.localidad_id_destino,\r\n    db.pedido.chofer_id,\r\n    orderby=db.pedido.id,\r\n    )\r\n    return {\'buscar_pedidos\' : buscar_pedidos, \'form\' : form, \'chofer\' : chofer, \'esqueleto\' : esqueleto}    \r\n    # End: BUSCADOR\r\n\r\n############################################################################################################\r\n\r\ndef cliente():\r\n   \r\n    \r\n    # Begin: BUSCADOR\r\n    \r\n    # FORMULARIO PARA INGRESAR DATOS\r\n    form = SQLFORM.factory(\r\n        Field("cliente", label="Cliente",\r\n        requires = IS_IN_DB(db, db.auth_user.id, "(%(id)s) %(first_name)s %(last_name)s")),\r\n        submit_button=\'Buscar\')\r\n\r\n    if form.accepts(request.vars, session):\r\n        response.flash = \'Busqueda realizada\'\r\n    elif form.errors:\r\n        response.flash = \'Hay errores, por favor corrijalos.\'\r\n    \r\n    # ASIGNA VARIABLES\r\n    cliente=form.vars.cliente\r\n\r\n    # MUESTRA EL LISTADO DE PEDIDOS SEGUN LOS CAMPOS SOLICITADOS\r\n    buscar_pedidos = db(db.sale.buyer==cliente).select(\r\n    db.sale.id,\r\n    db.sale.fecha_de_pedido,\r\n    db.sale.product,\r\n    db.sale.quantity,\r\n    db.sale.asignar_chofer,\r\n    orderby=db.sale.id,\r\n    )\r\n    return {\'buscar_pedidos\' : buscar_pedidos, \'form\' : form, \'cliente\' : cliente}    \r\n    # End: BUSCADOR   \r\n    \r\n############################################################################################################\r\n\r\ndef localidad_destino():\r\n       \r\n    \r\n    # Begin: BUSCADOR\r\n    \r\n    # FORMULARIO PARA INGRESAR DATOS\r\n    form = SQLFORM.factory(\r\n        Field("localidad", label="Localidad",\r\n        requires = IS_IN_DB(db, db.localidad.id, "(%(id)s) %(nombre_localidad)s")),\r\n        submit_button=\'Buscar\')\r\n\r\n    if form.accepts(request.vars, session):\r\n        response.flash = \'Busqueda realizada\'\r\n    elif form.errors:\r\n        response.flash = \'Hay errores, por favor corrijalos.\'\r\n    \r\n    # ASIGNA VARIABLES\r\n    localidad=form.vars.localidad\r\n\r\n    # MUESTRA EL LISTADO DE PEDIDOS SEGUN LOS CAMPOS SOLICITADOS\r\n    buscar_pedidos = db(db.pedido.localidad_id_destino==localidad).select(\r\n    db.pedido.id,\r\n    db.pedido.fecha_pedido,\r\n    db.pedido.fecha_viaje,\r\n    db.pedido.localidad_id_destino,\r\n    db.pedido.localidad_id_partida,\r\n    db.pedido.cliente_id,\r\n    db.pedido.chofer_id,\r\n    db.pedido.estado_pedido,\r\n    orderby=db.pedido.id,\r\n    )\r\n    return {\'buscar_pedidos\' : buscar_pedidos, \'form\' : form, \'localidad\' : localidad, \'esqueleto\' : esqueleto}    \r\n    # End: BUSCADOR  \r\n    \r\n############################################################################################################\r\n\r\ndef localidad_partida():\r\n       \r\n    \r\n    # Begin: BUSCADOR\r\n    \r\n    # FORMULARIO PARA INGRESAR DATOS\r\n    form = SQLFORM.factory(\r\n        Field("localidad", label="Localidad",\r\n        requires = IS_IN_DB(db, db.localidad.id, "(%(id)s) %(nombre_localidad)s")),\r\n        submit_button=\'Buscar\')\r\n\r\n    if form.accepts(request.vars, session):\r\n        response.flash = \'Busqueda realizada\'\r\n    elif form.errors:\r\n        response.flash = \'Hay errores, por favor corrijalos.\'\r\n    \r\n    # ASIGNA VARIABLES\r\n    localidad=form.vars.localidad\r\n\r\n    # MUESTRA EL LISTADO DE PEDIDOS SEGUN LOS CAMPOS SOLICITADOS\r\n    buscar_pedidos = db(db.pedido.localidad_id_partida==localidad).select(\r\n    db.pedido.id,\r\n    db.pedido.fecha_pedido,\r\n    db.pedido.fecha_viaje,\r\n    db.pedido.localidad_id_partida,\r\n    db.pedido.localidad_id_destino,\r\n    db.pedido.cliente_id,\r\n    db.pedido.chofer_id,\r\n    db.pedido.estado_pedido,\r\n    orderby=db.pedido.id,\r\n    )\r\n    return {\'buscar_pedidos\' : buscar_pedidos, \'form\' : form, \'localidad\' : localidad, \'esqueleto\' : esqueleto}    \r\n    # End: BUSCADOR         \r\n\r\n############################################################################################################\r\n\r\ndef estado():\r\n    \r\n    \r\n    # Begin: BUSCADOR\r\n    \r\n    # FORMULARIO PARA INGRESAR DATOS\r\n    form = SQLFORM.factory(\r\n        Field("estado", label="Estado",\r\n        requires = IS_IN_SET([\'En curso\',\'Realizado\',\'Pendiente\'])),\r\n        submit_button=\'Buscar\')\r\n\r\n    if form.accepts(request.vars, session):\r\n        response.flash = \'Busqueda realizada\'\r\n    elif form.errors:\r\n        response.flash = \'Hay errores, por favor corrijalos.\'\r\n    \r\n    # ASIGNA VARIABLES\r\n    estado=form.vars.estado\r\n\r\n    # MUESTRA EL LISTADO DE PEDIDOS SEGUN LOS CAMPOS SOLICITADOS\r\n    buscar_pedidos = db(db.pedido.estado_pedido==estado).select(\r\n    db.pedido.id,\r\n    db.pedido.fecha_pedido,\r\n    db.pedido.fecha_viaje,\r\n    db.pedido.estado_pedido,\r\n    db.pedido.localidad_id_partida,\r\n    db.pedido.localidad_id_destino,\r\n    db.pedido.cliente_id,\r\n    db.pedido.chofer_id,\r\n    orderby=db.pedido.id,\r\n    )\r\n    return {\'buscar_pedidos\' : buscar_pedidos, \'form\' : form, \'estado\' : estado, \'esqueleto\' : esqueleto}    \r\n    # End: BUSCADOR  \r\n\r\n############################################################################################################\r\n\r\ndef modificar_pedido():\r\n\r\n\r\n    if not request.args:\r\n        session.flash="No informo pedido a editar"\r\n        redirect(URL("pedido"))\r\n\r\n    ped = db(db.sale.id==request.args[0]).select()\r\n    if not ped:\r\n        session.flash="El pedido no existe"\r\n        redirect(URL("pedido"))\r\n        \r\n    pedido = ped[0]\r\n    \r\n    db.sale.id.readable = False\r\n    db.sale.id.writable = False\r\n   \r\n#    if auth.has_membership (group_id=2) or auth.has_membership (group_id=5):\r\n    form = SQLFORM(db.sale, pedido,\r\n                    deletable=True,\r\n                    fields=[\r\n                    \'buyer\',\r\n                    \'product\',\r\n  \r\n                      "quantity",\r\n                                     "price",\r\n\r\n"catalogar_pedido",\r\n\r\n\r\n\r\n"shipped",\r\n"estado_pedido",\r\n     \r\n"shipping_address",\r\n "shipping_city",\r\n  "shipping_state",\r\n"shipping_zip_code",\r\n\r\n"tracking_number",\r\n"puerta_partida",\r\n \r\n"asignar_transporte",\r\n  \r\n"asignar_chofer",\r\n\r\n                    ],\r\n\r\n                    submit_button=\'Modificar\')\r\n\r\n    if form.accepts(request.vars, session):\r\n            session.flash = "Pedido modificado"\r\n            redirect(URL(\'pedido\'))\r\n    elif form.errors:\r\n            response.flash = "Hubo errores"\r\n    else:\r\n            response.flash = "Modifique el pedido"\r\n\r\n    return {\'form\': form,\'pedido\': pedido}\r\n\r\n############################################################################################################\r\n    \r\ndef imprimir_pedido():\r\n  \r\n\r\n    pedido_id =request.args[0]\r\n    # Busca el pedido para mostrarlo\r\n    pedido = db(db.sale.id==pedido_id,db.sale.product==pedido_id).select()[0]\r\n     \r\n    cliente = db(db.auth_user.id==pedido.buyer).select()[0]\r\n    chofer = db(db.chofer.id).select()[0]\r\n  \r\n    localidad_destino = db(db.sale.shipping_city==pedido.shipping_city).select()[0]\r\n\r\n    producto = db(db.articulo.nombre).select()[0]\r\n\r\n    cantidad = db(db.sale.quantity==pedido.quantity).select()[0]\r\n    return dict(\r\n    pedido=pedido,\r\n    cliente=cliente,\r\n    chofer=chofer,\r\n    localidad_destino= localidad_destino,\r\n    producto=producto,\r\n    cantidad=cantidad\r\n     )\r\ndef documentacion():\r\n    lista_pedidos = db\r\n    (db.sale.id>0).select(\r\n    db.sale.id,   \r\n    db.sale.estado_pedido,\r\n\r\n    db.sale.shipping_city,    \r\n    orderby=db.sale.estado_pedido,)\r\n    return dict(lista_pedidos=lista_pedidos)\r\ndef imprimir_remito():\r\n    pedido_id =request.args[0]\r\n    # Busca el pedido para mostrarlo\r\n    pedido = db(db.sale.id==pedido_id,db.sale.product==pedido_id).select()[0]\r\n    cliente = db(db.auth_user.id==pedido.buyer).select()[0]\r\n    chofer = db(db.chofer.id).select()[0]  \r\n    localidad_destino = db(db.sale.shipping_city==pedido.shipping_city).select()[0]\r\n    producto = db(db.articulo.nombre).select()[0]\r\n    cantidad = db(db.sale.quantity==pedido.quantity).select()[0]\r\n    return dict(\r\n    pedido=pedido,\r\n    cliente=cliente,\r\n    chofer=chofer,\r\n    localidad_destino= localidad_destino,\r\n    producto=producto,\r\n    cantidad=cantidad\r\n     )\r\n\r\n@auth.requires_membership(role=\'Operador\')\r\ndef user():\r\n    return dict(form=auth())\r\n\r\n############################################################################################################\r\n\r\n\r\n\r\n############################################################################################################\r\n\r\n@auth.requires_membership(role=\'Cliente\')\r\ndef call():\r\n    session.forget()\r\n    return service()\r\n\nresponse._vars=response._caller(imprimir_pedido)\n'
p7
sS'snapshot'
p8
(dp9
S'exception'
p10
(dp11
S'__hash__'
p12
S"<method-wrapper '__hash__' of exceptions.IndexError object>"
p13
sS'__setattr__'
p14
S"<method-wrapper '__setattr__' of exceptions.IndexError object>"
p15
sS'__reduce_ex__'
p16
S'<built-in method __reduce_ex__ of exceptions.IndexError object>'
p17
sS'__getslice__'
p18
S"<method-wrapper '__getslice__' of exceptions.IndexError object>"
p19
sS'__getitem__'
p20
S"<method-wrapper '__getitem__' of exceptions.IndexError object>"
p21
sS'__setstate__'
p22
S'<built-in method __setstate__ of exceptions.IndexError object>'
p23
sS'__reduce__'
p24
S'<built-in method __reduce__ of exceptions.IndexError object>'
p25
sS'__str__'
p26
S"<method-wrapper '__str__' of exceptions.IndexError object>"
p27
sS'__format__'
p28
S'<built-in method __format__ of exceptions.IndexError object>'
p29
sS'__getattribute__'
p30
S"<method-wrapper '__getattribute__' of exceptions.IndexError object>"
p31
sS'__class__'
p32
S"<type 'exceptions.IndexError'>"
p33
sS'__unicode__'
p34
S'<built-in method __unicode__ of exceptions.IndexError object>'
p35
sS'__delattr__'
p36
S"<method-wrapper '__delattr__' of exceptions.IndexError object>"
p37
sS'__subclasshook__'
p38
S'<built-in method __subclasshook__ of type object>'
p39
sS'__repr__'
p40
S"<method-wrapper '__repr__' of exceptions.IndexError object>"
p41
sS'args'
p42
S"('list index out of range',)"
p43
sS'__dict__'
p44
S'{}'
p45
sS'__sizeof__'
p46
S'<built-in method __sizeof__ of exceptions.IndexError object>'
p47
sS'__doc__'
p48
S"'Sequence index out of range.'"
p49
sS'__init__'
p50
S"<method-wrapper '__init__' of exceptions.IndexError object>"
p51
sS'__new__'
p52
S'<built-in method __new__ of type object>'
p53
ssS'evalue'
p54
S'list index out of range'
p55
sS'request'
p56
cgluon.html
XML_unpickle
p57
(S's\xf6Z\x00\x00<div><table><tr><td style="font-weight:bold;vertical-align:top;">ajax</td><td style="vertical-align:top;">:</td><td><div>False</div></td></tr><tr><td style="font-weight:bold;vertical-align:top;">application</td><td style="vertical-align:top;">:</td><td><div>FINAL</div></td></tr><tr><td style="font-weight:bold;vertical-align:top;">args</td><td style="vertical-align:top;">:</td><td><div><table></table></div></td></tr><tr><td style="font-weight:bold;vertical-align:top;">cid</td><td style="vertical-align:top;">:</td><td><div>None</div></td></tr><tr><td style="font-weight:bold;vertical-align:top;">client</td><td style="vertical-align:top;">:</td><td><div>127.0.0.1</div></td></tr><tr><td style="font-weight:bold;vertical-align:top;">controller</td><td style="vertical-align:top;">:</td><td><div>pedido</div></td></tr><tr><td style="font-weight:bold;vertical-align:top;">cookies</td><td style="vertical-align:top;">:</td><td><div><table><tr><td style="font-weight:bold;vertical-align:top;">session_id_admin</td><td style="vertical-align:top;">:</td><td><div>127.0.0.1-11633506-a972-4fc1-a78a-a7cf7b24fdd2<table><tr><td style="font-weight:bold;vertical-align:top;">comment</td><td style="vertical-align:top;">:</td><td><div></div></td></tr><tr><td style="font-weight:bold;vertical-align:top;">domain</td><td style="vertical-align:top;">:</td><td><div></div></td></tr><tr><td style="font-weight:bold;vertical-align:top;">expires</td><td style="vertical-align:top;">:</td><td><div></div></td></tr><tr><td style="font-weight:bold;vertical-align:top;">httponly</td><td style="vertical-align:top;">:</td><td><div></div></td></tr><tr><td style="font-weight:bold;vertical-align:top;">max-age</td><td style="vertical-align:top;">:</td><td><div></div></td></tr><tr><td style="font-weight:bold;vertical-align:top;">path</td><td style="vertical-align:top;">:</td><td><div></div></td></tr><tr><td style="font-weight:bold;vertical-align:top;">secure</td><td style="vertical-align:top;">:</td><td><div></div></td></tr><tr><td style="font-weight:bold;vertical-align:top;">version</td><td style="vertical-align:top;">:</td><td><div></div></td></tr></table></div></td></tr><tr><td style="font-weight:bold;vertical-align:top;">session_id_final</td><td style="vertical-align:top;">:</td><td><div>127.0.0.1-78f48e96-f0ac-4301-a796-c2d6562db76a<table><tr><td style="font-weight:bold;vertical-align:top;">comment</td><td style="vertical-align:top;">:</td><td><div></div></td></tr><tr><td style="font-weight:bold;vertical-align:top;">domain</td><td style="vertical-align:top;">:</td><td><div></div></td></tr><tr><td style="font-weight:bold;vertical-align:top;">expires</td><td style="vertical-align:top;">:</td><td><div></div></td></tr><tr><td style="font-weight:bold;vertical-align:top;">httponly</td><td style="vertical-align:top;">:</td><td><div></div></td></tr><tr><td style="font-weight:bold;vertical-align:top;">max-age</td><td style="vertical-align:top;">:</td><td><div></div></td></tr><tr><td style="font-weight:bold;vertical-align:top;">path</td><td style="vertical-align:top;">:</td><td><div></div></td></tr><tr><td style="font-weight:bold;vertical-align:top;">secure</td><td style="vertical-align:top;">:</td><td><div></div></td></tr><tr><td style="font-weight:bold;vertical-align:top;">version</td><td style="vertical-align:top;">:</td><td><div></div></td></tr></table></div></td></tr><tr><td style="font-weight:bold;vertical-align:top;">session_id_welcome</td><td style="vertical-align:top;">:</td><td><div>127.0.0.1-fb76716b-6acf-49e4-8ed1-8780ccb46ae4<table><tr><td style="font-weight:bold;vertical-align:top;">comment</td><td style="vertical-align:top;">:</td><td><div></div></td></tr><tr><td style="font-weight:bold;vertical-align:top;">domain</td><td style="vertical-align:top;">:</td><td><div></div></td></tr><tr><td style="font-weight:bold;vertical-align:top;">expires</td><td style="vertical-align:top;">:</td><td><div></div></td></tr><tr><td style="font-weight:bold;vertical-align:top;">httponly</td><td style="vertical-align:top;">:</td><td><div></div></td></tr><tr><td style="font-weight:bold;vertical-align:top;">max-age</td><td style="vertical-align:top;">:</td><td><div></div></td></tr><tr><td style="font-weight:bold;vertical-align:top;">path</td><td style="vertical-align:top;">:</td><td><div></div></td></tr><tr><td style="font-weight:bold;vertical-align:top;">secure</td><td style="vertical-align:top;">:</td><td><div></div></td></tr><tr><td style="font-weight:bold;vertical-align:top;">version</td><td style="vertical-align:top;">:</td><td><div></div></td></tr></table></div></td></tr></table></div></td></tr><tr><td style="font-weight:bold;vertical-align:top;">env</td><td style="vertical-align:top;">:</td><td><div><table><tr><td style="font-weight:bold;vertical-align:top;">HTTP_ACCEPT</td><td style="vertical-align:top;">:</td><td><div>text/html,application/xhtml+xml,application/xml;q=0.9,*/*;q=0.8</div></td></tr><tr><td style="font-weight:bold;vertical-align:top;">HTTP_ACCEPT_ENCODING</td><td style="vertical-align:top;">:</td><td><div>gzip, deflate</div></td></tr><tr><td style="font-weight:bold;vertical-align:top;">HTTP_ACCEPT_LANGUAGE</td><td style="vertical-align:top;">:</td><td><div>en-US,en;q=0.5</div></td></tr><tr><td style="font-weight:bold;vertical-align:top;">HTTP_CONNECTION</td><td style="vertical-align:top;">:</td><td><div>keep-alive</div></td></tr><tr><td style="font-weight:bold;vertical-align:top;">HTTP_COOKIE</td><td style="vertical-align:top;">:</td><td><div>session_id_welcome=127.0.0.1-fb76716b-6acf-49e4-8ed1-8780ccb46ae4; session_id_admin=127.0.0.1-11633506-a972-4fc1-a78a-a7cf7b24fdd2; session_id_final=127.0.0.1-78f48e96-f0ac-4301-a796-c2d6562db76a</div></td></tr><tr><td style="font-weight:bold;vertical-align:top;">HTTP_HOST</td><td style="vertical-align:top;">:</td><td><div>127.0.0.1:8000</div></td></tr><tr><td style="font-weight:bold;vertical-align:top;">HTTP_REFERER</td><td style="vertical-align:top;">:</td><td><div>http://127.0.0.1:8000/admin/default/design/FINAL</div></td></tr><tr><td style="font-weight:bold;vertical-align:top;">HTTP_UPGRADE_INSECURE_REQUESTS</td><td style="vertical-align:top;">:</td><td><div>1</div></td></tr><tr><td style="font-weight:bold;vertical-align:top;">HTTP_USER_AGENT</td><td style="vertical-align:top;">:</td><td><div>Mozilla/5.0 (X11; Ubuntu; Linux i686; rv:50.0) Gecko/20100101 Firefox/50.0</div></td></tr><tr><td style="font-weight:bold;vertical-align:top;">PATH_INFO</td><td style="vertical-align:top;">:</td><td><div>/FINAL/pedido/imprimir_pedido</div></td></tr><tr><td style="font-weight:bold;vertical-align:top;">QUERY_STRING</td><td style="vertical-align:top;">:</td><td><div></div></td></tr><tr><td style="font-weight:bold;vertical-align:top;">REMOTE_ADDR</td><td style="vertical-align:top;">:</td><td><div>127.0.0.1</div></td></tr><tr><td style="font-weight:bold;vertical-align:top;">REMOTE_PORT</td><td style="vertical-align:top;">:</td><td><div>56692</div></td></tr><tr><td style="font-weight:bold;vertical-align:top;">REQUEST_METHOD</td><td style="vertical-align:top;">:</td><td><div>GET</div></td></tr><tr><td style="font-weight:bold;vertical-align:top;">SCRIPT_NAME</td><td style="vertical-align:top;">:</td><td><div></div></td></tr><tr><td style="font-weight:bold;vertical-align:top;">SERVER_NAME</td><td style="vertical-align:top;">:</td><td><div>angel-Cantiga-ICH9M-Chipset</div></td></tr><tr><td style="font-weight:bold;vertical-align:top;">SERVER_PORT</td><td style="vertical-align:top;">:</td><td><div>8000</div></td></tr><tr><td style="font-weight:bold;vertical-align:top;">SERVER_PROTOCOL</td><td style="vertical-align:top;">:</td><td><div>HTTP/1.1</div></td></tr><tr><td style="font-weight:bold;vertical-align:top;">SERVER_SOFTWARE</td><td style="vertical-align:top;">:</td><td><div>Rocket 1.2.6</div></td></tr><tr><td style="font-weight:bold;vertical-align:top;">app_folders</td><td style="vertical-align:top;">:</td><td><div>set([&#x27;/home/angel/web2py/applications/welcome/&#x27;, &#x27;/home/angel/web2py/applications/admin/&#x27;, &#x27;/home/angel/web2py/applications/FINAL/&#x27;])</div></td></tr><tr><td style="font-weight:bold;vertical-align:top;">applications_parent</td><td style="vertical-align:top;">:</td><td><div>/home/angel/web2py</div></td></tr><tr><td style="font-weight:bold;vertical-align:top;">cmd_args</td><td style="vertical-align:top;">:</td><td><div><table></table></div></td></tr><tr><td style="font-weight:bold;vertical-align:top;">cmd_options</td><td style="vertical-align:top;">:</td><td><div>&lt;Values at 0xb536dcec: {&#x27;verbose&#x27;: False, &#x27;ip&#x27;: &#x27;127.0.0.1&#x27;, &#x27;debuglevel&#x27;: 30, &#x27;with_scheduler&#x27;: False, &#x27;shutdown_timeout&#x27;: 5, &#x27;taskbar&#x27;: False, &#x27;with_coverage&#x27;: False, &#x27;pid_filename&#x27;: &#x27;httpserver.pid&#x27;, &#x27;maxthreads&#x27;: None, &#x27;softcron&#x27;: False, &#x27;server_name&#x27;: &#x27;angel-Cantiga-ICH9M-Chipset&#x27;, &#x27;bpython&#x27;: False, &#x27;nogui&#x27;: False, &#x27;port&#x27;: 8000, &#x27;print_errors&#x27;: False, &#x27;extcron&#x27;: False, &#x27;runcron&#x27;: False, &#x27;run_system_tests&#x27;: False, &#x27;test&#x27;: None, &#x27;folder&#x27;: &#x27;/home/angel/web2py&#x27;, &#x27;config&#x27;: &#x27;&#x27;, &#x27;minthreads&#x27;: None, &#x27;shell&#x27;: None, &#x27;run&#x27;: &#x27;&#x27;, &#x27;log_filename&#x27;: &#x27;httpserver.log&#x27;, &#x27;profiler_dir&#x27;: None, &#x27;args&#x27;: [&#x27;&#x27;], &#x27;socket_timeout&#x27;: 5, &#x27;ssl_ca_certificate&#x27;: None, &#x27;scheduler&#x27;: None, &#x27;interfaces&#x27;: None, &#x27;ssl_private_key&#x27;: &#x27;&#x27;, &#x27;gae&#x27;: None, &#x27;password&#x27;: &#x27;******&#x27;, &#x27;request_queue_size&#x27;: 5, &#x27;ssl_certificate&#x27;: &#x27;&#x27;, &#x27;cronjob&#x27;: False, &#x27;numthreads&#x27;: None, &#x27;quiet&#x27;: False, &#x27;import_models&#x27;: False, &#x27;timeout&#x27;: 10, &#x27;plain&#x27;: False, &#x27;nobanner&#x27;: False}&gt;</div></td></tr><tr><td style="font-weight:bold;vertical-align:top;">db_sessions</td><td style="vertical-align:top;">:</td><td><div>set([])</div></td></tr><tr><td style="font-weight:bold;vertical-align:top;">debugging</td><td style="vertical-align:top;">:</td><td><div>True</div></td></tr><tr><td style="font-weight:bold;vertical-align:top;">gluon_parent</td><td style="vertical-align:top;">:</td><td><div>/home/angel/web2py</div></td></tr><tr><td style="font-weight:bold;vertical-align:top;">http_accept</td><td style="vertical-align:top;">:</td><td><div>text/html,application/xhtml+xml,application/xml;q=0.9,*/*;q=0.8</div></td></tr><tr><td style="font-weight:bold;vertical-align:top;">http_accept_encoding</td><td style="vertical-align:top;">:</td><td><div>gzip, deflate</div></td></tr><tr><td style="font-weight:bold;vertical-align:top;">http_accept_language</td><td style="vertical-align:top;">:</td><td><div>en-US,en;q=0.5</div></td></tr><tr><td style="font-weight:bold;vertical-align:top;">http_connection</td><td style="vertical-align:top;">:</td><td><div>keep-alive</div></td></tr><tr><td style="font-weight:bold;vertical-align:top;">http_cookie</td><td style="vertical-align:top;">:</td><td><div>session_id_welcome=127.0.0.1-fb76716b-6acf-49e4-8ed1-8780ccb46ae4; session_id_admin=127.0.0.1-11633506-a972-4fc1-a78a-a7cf7b24fdd2; session_id_final=127.0.0.1-78f48e96-f0ac-4301-a796-c2d6562db76a</div></td></tr><tr><td style="font-weight:bold;vertical-align:top;">http_host</td><td style="vertical-align:top;">:</td><td><div>127.0.0.1:8000</div></td></tr><tr><td style="font-weight:bold;vertical-align:top;">http_referer</td><td style="vertical-align:top;">:</td><td><div>http://127.0.0.1:8000/admin/default/design/FINAL</div></td></tr><tr><td style="font-weight:bold;vertical-align:top;">http_upgrade_insecure_requests</td><td style="vertical-align:top;">:</td><td><div>1</div></td></tr><tr><td style="font-weight:bold;vertical-align:top;">http_user_agent</td><td style="vertical-align:top;">:</td><td><div>Mozilla/5.0 (X11; Ubuntu; Linux i686; rv:50.0) Gecko/20100101 Firefox/50.0</div></td></tr><tr><td style="font-weight:bold;vertical-align:top;">is_jython</td><td style="vertical-align:top;">:</td><td><div>False</div></td></tr><tr><td style="font-weight:bold;vertical-align:top;">is_pypy</td><td style="vertical-align:top;">:</td><td><div>False</div></td></tr><tr><td style="font-weight:bold;vertical-align:top;">is_source</td><td style="vertical-align:top;">:</td><td><div>True</div></td></tr><tr><td style="font-weight:bold;vertical-align:top;">local_hosts</td><td style="vertical-align:top;">:</td><td><div><table><tr><td><div>::1</div></td></tr><tr><td><div>127.0.1.1</div></td></tr><tr><td><div>angel-Cantiga-ICH9M-Chipset</div></td></tr><tr><td><div>::ffff:127.0.0.1</div></td></tr><tr><td><div>127.0.0.1</div></td></tr></table></div></td></tr><tr><td style="font-weight:bold;vertical-align:top;">path_info</td><td style="vertical-align:top;">:</td><td><div>/FINAL/pedido/imprimir_pedido</div></td></tr><tr><td style="font-weight:bold;vertical-align:top;">query_string</td><td style="vertical-align:top;">:</td><td><div></div></td></tr><tr><td style="font-weight:bold;vertical-align:top;">remote_addr</td><td style="vertical-align:top;">:</td><td><div>127.0.0.1</div></td></tr><tr><td style="font-weight:bold;vertical-align:top;">remote_port</td><td style="vertical-align:top;">:</td><td><div>56692</div></td></tr><tr><td style="font-weight:bold;vertical-align:top;">request_method</td><td style="vertical-align:top;">:</td><td><div>GET</div></td></tr><tr><td style="font-weight:bold;vertical-align:top;">request_uri</td><td style="vertical-align:top;">:</td><td><div>/FINAL/pedido/imprimir_pedido</div></td></tr><tr><td style="font-weight:bold;vertical-align:top;">script_name</td><td style="vertical-align:top;">:</td><td><div></div></td></tr><tr><td style="font-weight:bold;vertical-align:top;">server_name</td><td style="vertical-align:top;">:</td><td><div>angel-Cantiga-ICH9M-Chipset</div></td></tr><tr><td style="font-weight:bold;vertical-align:top;">server_port</td><td style="vertical-align:top;">:</td><td><div>8000</div></td></tr><tr><td style="font-weight:bold;vertical-align:top;">server_protocol</td><td style="vertical-align:top;">:</td><td><div>HTTP/1.1</div></td></tr><tr><td style="font-weight:bold;vertical-align:top;">server_software</td><td style="vertical-align:top;">:</td><td><div>Rocket 1.2.6</div></td></tr><tr><td style="font-weight:bold;vertical-align:top;">web2py_path</td><td style="vertical-align:top;">:</td><td><div>/home/angel/web2py</div></td></tr><tr><td style="font-weight:bold;vertical-align:top;">web2py_version</td><td style="vertical-align:top;">:</td><td><div>2.14.6-stable+timestamp.2016.05.10.00.21.47</div></td></tr><tr><td style="font-weight:bold;vertical-align:top;">wsgi.errors</td><td style="vertical-align:top;">:</td><td><div>&lt;open file &#x27;&lt;stderr&gt;&#x27;, mode &#x27;w&#x27; at 0xb74c70d0&gt;</div></td></tr><tr><td style="font-weight:bold;vertical-align:top;">wsgi.file_wrapper</td><td style="vertical-align:top;">:</td><td><div>&lt;class wsgiref.util.FileWrapper at 0xb6199fbc&gt;</div></td></tr><tr><td style="font-weight:bold;vertical-align:top;">wsgi.input</td><td style="vertical-align:top;">:</td><td><div>&lt;socket._fileobject object at 0xacb2176c&gt;</div></td></tr><tr><td style="font-weight:bold;vertical-align:top;">wsgi.multiprocess</td><td style="vertical-align:top;">:</td><td><div>False</div></td></tr><tr><td style="font-weight:bold;vertical-align:top;">wsgi.multithread</td><td style="vertical-align:top;">:</td><td><div>True</div></td></tr><tr><td style="font-weight:bold;vertical-align:top;">wsgi.run_once</td><td style="vertical-align:top;">:</td><td><div>False</div></td></tr><tr><td style="font-weight:bold;vertical-align:top;">wsgi.url_scheme</td><td style="vertical-align:top;">:</td><td><div>http</div></td></tr><tr><td style="font-weight:bold;vertical-align:top;">wsgi.version</td><td style="vertical-align:top;">:</td><td><div><table><tr><td><div>1</div></td></tr><tr><td><div>0</div></td></tr></table></div></td></tr><tr><td style="font-weight:bold;vertical-align:top;">wsgi_errors</td><td style="vertical-align:top;">:</td><td><div>&lt;open file &#x27;&lt;stderr&gt;&#x27;, mode &#x27;w&#x27; at 0xb74c70d0&gt;</div></td></tr><tr><td style="font-weight:bold;vertical-align:top;">wsgi_file_wrapper</td><td style="vertical-align:top;">:</td><td><div>&lt;class wsgiref.util.FileWrapper at 0xb6199fbc&gt;</div></td></tr><tr><td style="font-weight:bold;vertical-align:top;">wsgi_input</td><td style="vertical-align:top;">:</td><td><div>&lt;socket._fileobject object at 0xacb2176c&gt;</div></td></tr><tr><td style="font-weight:bold;vertical-align:top;">wsgi_multiprocess</td><td style="vertical-align:top;">:</td><td><div>False</div></td></tr><tr><td style="font-weight:bold;vertical-align:top;">wsgi_multithread</td><td style="vertical-align:top;">:</td><td><div>True</div></td></tr><tr><td style="font-weight:bold;vertical-align:top;">wsgi_run_once</td><td style="vertical-align:top;">:</td><td><div>False</div></td></tr><tr><td style="font-weight:bold;vertical-align:top;">wsgi_url_scheme</td><td style="vertical-align:top;">:</td><td><div>http</div></td></tr><tr><td style="font-weight:bold;vertical-align:top;">wsgi_version</td><td style="vertical-align:top;">:</td><td><div><table><tr><td><div>1</div></td></tr><tr><td><div>0</div></td></tr></table></div></td></tr></table></div></td></tr><tr><td style="font-weight:bold;vertical-align:top;">extension</td><td style="vertical-align:top;">:</td><td><div>html</div></td></tr><tr><td style="font-weight:bold;vertical-align:top;">folder</td><td style="vertical-align:top;">:</td><td><div>/home/angel/web2py/applications/FINAL/</div></td></tr><tr><td style="font-weight:bold;vertical-align:top;">function</td><td style="vertical-align:top;">:</td><td><div>imprimir_pedido</div></td></tr><tr><td style="font-weight:bold;vertical-align:top;">global_settings</td><td style="vertical-align:top;">:</td><td><div><table><tr><td style="font-weight:bold;vertical-align:top;">app_folders</td><td style="vertical-align:top;">:</td><td><div>set([&#x27;/home/angel/web2py/applications/welcome/&#x27;, &#x27;/home/angel/web2py/applications/admin/&#x27;, &#x27;/home/angel/web2py/applications/FINAL/&#x27;])</div></td></tr><tr><td style="font-weight:bold;vertical-align:top;">applications_parent</td><td style="vertical-align:top;">:</td><td><div>/home/angel/web2py</div></td></tr><tr><td style="font-weight:bold;vertical-align:top;">cmd_args</td><td style="vertical-align:top;">:</td><td><div><table></table></div></td></tr><tr><td style="font-weight:bold;vertical-align:top;">cmd_options</td><td style="vertical-align:top;">:</td><td><div>&lt;Values at 0xb536dcec: {&#x27;verbose&#x27;: False, &#x27;ip&#x27;: &#x27;127.0.0.1&#x27;, &#x27;debuglevel&#x27;: 30, &#x27;with_scheduler&#x27;: False, &#x27;shutdown_timeout&#x27;: 5, &#x27;taskbar&#x27;: False, &#x27;with_coverage&#x27;: False, &#x27;pid_filename&#x27;: &#x27;httpserver.pid&#x27;, &#x27;maxthreads&#x27;: None, &#x27;softcron&#x27;: False, &#x27;server_name&#x27;: &#x27;angel-Cantiga-ICH9M-Chipset&#x27;, &#x27;bpython&#x27;: False, &#x27;nogui&#x27;: False, &#x27;port&#x27;: 8000, &#x27;print_errors&#x27;: False, &#x27;extcron&#x27;: False, &#x27;runcron&#x27;: False, &#x27;run_system_tests&#x27;: False, &#x27;test&#x27;: None, &#x27;folder&#x27;: &#x27;/home/angel/web2py&#x27;, &#x27;config&#x27;: &#x27;&#x27;, &#x27;minthreads&#x27;: None, &#x27;shell&#x27;: None, &#x27;run&#x27;: &#x27;&#x27;, &#x27;log_filename&#x27;: &#x27;httpserver.log&#x27;, &#x27;profiler_dir&#x27;: None, &#x27;args&#x27;: [&#x27;&#x27;], &#x27;socket_timeout&#x27;: 5, &#x27;ssl_ca_certificate&#x27;: None, &#x27;scheduler&#x27;: None, &#x27;interfaces&#x27;: None, &#x27;ssl_private_key&#x27;: &#x27;&#x27;, &#x27;gae&#x27;: None, &#x27;password&#x27;: &#x27;******&#x27;, &#x27;request_queue_size&#x27;: 5, &#x27;ssl_certificate&#x27;: &#x27;&#x27;, &#x27;cronjob&#x27;: False, &#x27;numthreads&#x27;: None, &#x27;quiet&#x27;: False, &#x27;import_models&#x27;: False, &#x27;timeout&#x27;: 10, &#x27;plain&#x27;: False, &#x27;nobanner&#x27;: False}&gt;</div></td></tr><tr><td style="font-weight:bold;vertical-align:top;">db_sessions</td><td style="vertical-align:top;">:</td><td><div>set([])</div></td></tr><tr><td style="font-weight:bold;vertical-align:top;">debugging</td><td style="vertical-align:top;">:</td><td><div>True</div></td></tr><tr><td style="font-weight:bold;vertical-align:top;">gluon_parent</td><td style="vertical-align:top;">:</td><td><div>/home/angel/web2py</div></td></tr><tr><td style="font-weight:bold;vertical-align:top;">is_jython</td><td style="vertical-align:top;">:</td><td><div>False</div></td></tr><tr><td style="font-weight:bold;vertical-align:top;">is_pypy</td><td style="vertical-align:top;">:</td><td><div>False</div></td></tr><tr><td style="font-weight:bold;vertical-align:top;">is_source</td><td style="vertical-align:top;">:</td><td><div>True</div></td></tr><tr><td style="font-weight:bold;vertical-align:top;">local_hosts</td><td style="vertical-align:top;">:</td><td><div><table><tr><td><div>::1</div></td></tr><tr><td><div>127.0.1.1</div></td></tr><tr><td><div>angel-Cantiga-ICH9M-Chipset</div></td></tr><tr><td><div>::ffff:127.0.0.1</div></td></tr><tr><td><div>127.0.0.1</div></td></tr></table></div></td></tr><tr><td style="font-weight:bold;vertical-align:top;">web2py_version</td><td style="vertical-align:top;">:</td><td><div>2.14.6-stable+timestamp.2016.05.10.00.21.47</div></td></tr></table></div></td></tr><tr><td style="font-weight:bold;vertical-align:top;">is_https</td><td style="vertical-align:top;">:</td><td><div>False</div></td></tr><tr><td style="font-weight:bold;vertical-align:top;">is_local</td><td style="vertical-align:top;">:</td><td><div>True</div></td></tr><tr><td style="font-weight:bold;vertical-align:top;">is_restful</td><td style="vertical-align:top;">:</td><td><div>False</div></td></tr><tr><td style="font-weight:bold;vertical-align:top;">is_scheduler</td><td style="vertical-align:top;">:</td><td><div>False</div></td></tr><tr><td style="font-weight:bold;vertical-align:top;">is_shell</td><td style="vertical-align:top;">:</td><td><div>False</div></td></tr><tr><td style="font-weight:bold;vertical-align:top;">now</td><td style="vertical-align:top;">:</td><td><div>datetime.datetime(2016, 12, 21, 19, 23, 6, 857010)</div></td></tr><tr><td style="font-weight:bold;vertical-align:top;">raw_args</td><td style="vertical-align:top;">:</td><td><div></div></td></tr><tr><td style="font-weight:bold;vertical-align:top;">raw_extension</td><td style="vertical-align:top;">:</td><td><div>None</div></td></tr><tr><td style="font-weight:bold;vertical-align:top;">url</td><td style="vertical-align:top;">:</td><td><div>/FINAL/pedido/imprimir_pedido</div></td></tr><tr><td style="font-weight:bold;vertical-align:top;">utcnow</td><td style="vertical-align:top;">:</td><td><div>datetime.datetime(2016, 12, 21, 22, 23, 6, 857044)</div></td></tr><tr><td style="font-weight:bold;vertical-align:top;">wsgi</td><td style="vertical-align:top;">:</td><td><div>&lt;gluon.main.LazyWSGI object at 0xacf8f2ec&gt;</div></td></tr></table></div>'
tRp58
sS'frames'
p59
(lp60
(dp61
S'file'
p62
S'/home/angel/web2py/gluon/restricted.py'
p63
sS'dump'
p64
(dp65
S'environment'
p66
S"{'A': <class 'gluon.html.A'>, 'ACTIVITY_CATEGORIES': ['acad\\xc3\\xa9mico', 'caso de estudio', 'ciencia', 'cli', 'comunidad', 'core', 'educaci\\xc3\\xb3n', 'fomento', 'gui', 'herramientas', 'juegos', 'lenguaje', 'moviles', 'py3k', 'redes', 'seguridad', 'testing', 'web'], 'ACTIVITY_DURATION': {'poster': 0, 'talk': 45, 'tutorial': 120}, 'ACTIVITY_LEVELS': ('Beginner', 'Intermediate', 'Advanced'), 'ACTIVITY_ROOMS': {1: '5-6-7-8', 2: '9-10', 3: '13+14', 4: '31', 5: '35', 6: '32'}, 'ACTIVITY_SHOW_DESCRIPTION': False, 'ACTIVITY_TYPES': ('keynote', 'panel', 'plenary', 'tutorial', 'talk', 'poster', 'startup', 'stand', 'summit', 'open-space', 'social', 'break', 'lightning talk'), 'ANY_OF': <class 'gluon.validators.ANY_OF'>, 'ASSIGNJS': <function ASSIGNJS>, 'ATTENDEE_TYPES': (('gratis', <lazyT 'Gratuito, $0'>),), ...}"
p67
sS'ccode'
p68
S'<code object <module> at 0xad1640b0, file "/home...pplications/FINAL/controllers/pedido.py", line 1>'
p69
ssS'lnum'
p70
I227
sS'lines'
p71
(dp72
I224
S'            ccode = code'
p73
sI225
S'        else:'
p74
sI226
S'            ccode = compile2(code, layer)'
p75
sI227
S'        exec ccode in environment'
p76
sI228
S'    except HTTP:'
p77
sI229
S'        raise'
p78
sI230
S'    except RestrictedError:'
p79
sI231
S'        # do not encapsulate (obfuscate) the original RestrictedError'
p80
sI222
S'    try:'
p81
sI223
S'        if isinstance(code, types.CodeType):'
p82
ssS'call'
p83
S"(code='def index():\\r\\n    if not auth.user_id:\\r\\n        ...response._vars=response._caller(imprimir_pedido)\\n', environment={'A': <class 'gluon.html.A'>, 'ACTIVITY_CATEGORIES': ['acad\\xc3\\xa9mico', 'caso de estudio', 'ciencia', 'cli', 'comunidad', 'core', 'educaci\\xc3\\xb3n', 'fomento', 'gui', 'herramientas', 'juegos', 'lenguaje', 'moviles', 'py3k', 'redes', 'seguridad', 'testing', 'web'], 'ACTIVITY_DURATION': {'poster': 0, 'talk': 45, 'tutorial': 120}, 'ACTIVITY_LEVELS': ('Beginner', 'Intermediate', 'Advanced'), 'ACTIVITY_ROOMS': {1: '5-6-7-8', 2: '9-10', 3: '13+14', 4: '31', 5: '35', 6: '32'}, 'ACTIVITY_SHOW_DESCRIPTION': False, 'ACTIVITY_TYPES': ('keynote', 'panel', 'plenary', 'tutorial', 'talk', 'poster', 'startup', 'stand', 'summit', 'open-space', 'social', 'break', 'lightning talk'), 'ANY_OF': <class 'gluon.validators.ANY_OF'>, 'ASSIGNJS': <function ASSIGNJS>, 'ATTENDEE_TYPES': (('gratis', <lazyT 'Gratuito, $0'>),), ...}, layer='/home/angel/web2py/applications/FINAL/controllers/pedido.py')"
p84
sS'func'
p85
S'restricted'
p86
sa(dp87
g62
S'/home/angel/web2py/applications/FINAL/controllers/pedido.py'
p88
sg64
(dp89
sg70
I587
sg71
(dp90
I576
S'############################################################################################################'
p91
sI577
S''
sI578
S''
sI579
S''
sI580
S'############################################################################################################'
p92
sI581
S''
sI582
S"@auth.requires_membership(role='Cliente')"
p93
sI583
S'def call():'
p94
sI584
S'    session.forget()'
p95
sI585
S'    return service()'
p96
ssg83
S'()'
p97
sg85
S'<module>'
p98
sa(dp99
g62
S'/home/angel/web2py/gluon/globals.py'
p100
sg64
(dp101
S'self'
p102
S'undefined'
p103
sS'f'
S'<function imprimir_pedido>'
p104
ssg70
I417
sg71
(dp105
I416
S'        self._vars = None'
p106
sI417
S'        self._caller = lambda f: f()'
p107
sI418
S'        self._view_environment = None'
p108
sI419
S'        self._custom_commit = None'
p109
sI420
S'        self._custom_rollback = None'
p110
sI421
S"        self.generic_patterns = ['*']"
p111
sI412
S"        self.flash = ''            # used by the default view layout"
p112
sI413
S'        self.meta = Storage()      # used by web2py_ajax.html'
p113
sI414
S'        self.menu = []             # used by the default view layout'
p114
sI415
S'        self.files = []            # used by web2py_ajax.html'
p115
ssg83
S'(f=<function imprimir_pedido>)'
p116
sg85
S'<lambda>'
p117
sa(dp118
g62
S'/home/angel/web2py/applications/FINAL/controllers/pedido.py'
p119
sg64
(dp120
S'global request'
p121
S"<Storage {'_vars': <Storage {}>, 'function': 'im...lder': '/home/angel/web2py/applications/FINAL/'}>"
p122
sS'request.args'
p123
S'[]'
p124
sS'pedido_id'
p125
g103
ssg70
I525
sg71
(dp126
I520
S'############################################################################################################'
p127
sI521
S''
sI522
S'def imprimir_pedido():'
p128
sI523
S''
sI524
S''
sI525
S'    pedido_id =request.args[0]'
p129
sI526
S'    # Busca el pedido para mostrarlo'
p130
sI527
S'    pedido = db(db.sale.id==pedido_id,db.sale.product==pedido_id).select()[0]'
p131
sI528
S''
sI529
S'    cliente = db(db.auth_user.id==pedido.buyer).select()[0]'
p132
ssg83
S'()'
p133
sg85
S'imprimir_pedido'
p134
sasS'pyver'
p135
S'Python 2.7.6: /usr/bin/python (prefix: /usr)'
p136
sS'session'
p137
g57
(S's\xc3\x02\x00\x00<div><table><tr><td style="font-weight:bold;vertical-align:top;">cart</td><td style="vertical-align:top;">:</td><td><div><table><tr><td style="font-weight:bold;vertical-align:top;">3</td><td style="vertical-align:top;">:</td><td><div>1</div></td></tr></table></div></td></tr><tr><td style="font-weight:bold;vertical-align:top;">flash</td><td style="vertical-align:top;">:</td><td><div>None</div></td></tr><tr><td style="font-weight:bold;vertical-align:top;">last_orderby</td><td style="vertical-align:top;">:</td><td><div>None</div></td></tr><tr><td style="font-weight:bold;vertical-align:top;">last_query</td><td style="vertical-align:top;">:</td><td><div>db.auth_user.id&gt;0</div></td></tr></table></div>'
tRp138
sS'etype'
p139
S"<type 'exceptions.IndexError'>"
p140
sS'date'
p141
S'Wed Dec 21 19:23:07 2016'
p142
sS'response'
p143
g57
(S's\xbd4\x00\x00<div><table><tr><td style="font-weight:bold;vertical-align:top;">body</td><td style="vertical-align:top;">:</td><td><div>&lt;cStringIO.StringO object at 0xacf98860&gt;</div></td></tr><tr><td style="font-weight:bold;vertical-align:top;">cookies</td><td style="vertical-align:top;">:</td><td><div><table><tr><td style="font-weight:bold;vertical-align:top;">session_id_final</td><td style="vertical-align:top;">:</td><td><div>127.0.0.1-78f48e96-f0ac-4301-a796-c2d6562db76a<table><tr><td style="font-weight:bold;vertical-align:top;">comment</td><td style="vertical-align:top;">:</td><td><div></div></td></tr><tr><td style="font-weight:bold;vertical-align:top;">domain</td><td style="vertical-align:top;">:</td><td><div></div></td></tr><tr><td style="font-weight:bold;vertical-align:top;">expires</td><td style="vertical-align:top;">:</td><td><div></div></td></tr><tr><td style="font-weight:bold;vertical-align:top;">httponly</td><td style="vertical-align:top;">:</td><td><div></div></td></tr><tr><td style="font-weight:bold;vertical-align:top;">max-age</td><td style="vertical-align:top;">:</td><td><div></div></td></tr><tr><td style="font-weight:bold;vertical-align:top;">path</td><td style="vertical-align:top;">:</td><td><div>/</div></td></tr><tr><td style="font-weight:bold;vertical-align:top;">secure</td><td style="vertical-align:top;">:</td><td><div></div></td></tr><tr><td style="font-weight:bold;vertical-align:top;">version</td><td style="vertical-align:top;">:</td><td><div></div></td></tr></table></div></td></tr></table></div></td></tr><tr><td style="font-weight:bold;vertical-align:top;">delimiters</td><td style="vertical-align:top;">:</td><td><div><table><tr><td><div>{{</div></td></tr><tr><td><div>}}</div></td></tr></table></div></td></tr><tr><td style="font-weight:bold;vertical-align:top;">description</td><td style="vertical-align:top;">:</td><td><div>Powered by web2py</div></td></tr><tr><td style="font-weight:bold;vertical-align:top;">files</td><td style="vertical-align:top;">:</td><td><div><table></table></div></td></tr><tr><td style="font-weight:bold;vertical-align:top;">flash</td><td style="vertical-align:top;">:</td><td><div></div></td></tr><tr><td style="font-weight:bold;vertical-align:top;">footer</td><td style="vertical-align:top;">:</td><td><div>Conference description&lt;b&gt;dates&lt;/b&gt; city (organized by &lt;a href="#"&gt;users group&lt;/a&gt;). &lt;br/&gt;\nMore info: &lt;a href="#"&gt;blog&lt;/a&gt;&amp;nbsp; Contact: &lt;a href="#"&gt;mail address&lt;/a&gt;</div></td></tr><tr><td style="font-weight:bold;vertical-align:top;">form_label_separator</td><td style="vertical-align:top;">:</td><td><div>: </div></td></tr><tr><td style="font-weight:bold;vertical-align:top;">formstyle</td><td style="vertical-align:top;">:</td><td><div>table3cols</div></td></tr><tr><td style="font-weight:bold;vertical-align:top;">generic_patterns</td><td style="vertical-align:top;">:</td><td><div><table><tr><td><div>*</div></td></tr></table></div></td></tr><tr><td style="font-weight:bold;vertical-align:top;">google_analytics_id</td><td style="vertical-align:top;">:</td><td><div>None</div></td></tr><tr><td style="font-weight:bold;vertical-align:top;">headers</td><td style="vertical-align:top;">:</td><td><div><table><tr><td style="font-weight:bold;vertical-align:top;">X-Powered-By</td><td style="vertical-align:top;">:</td><td><div>web2py</div></td></tr></table></div></td></tr><tr><td style="font-weight:bold;vertical-align:top;">keywords</td><td style="vertical-align:top;">:</td><td><div>python, free software</div></td></tr><tr><td style="font-weight:bold;vertical-align:top;">menu</td><td style="vertical-align:top;">:</td><td><div><table><tr><td><div><table><tr><td><div>Home</div></td></tr><tr><td><div>False</div></td></tr><tr><td><div>/FINAL/default/index</div></td></tr><tr><td><div><table></table></div></td></tr></table></div></td></tr><tr><td><div><table><tr><td><div><span style="color:yellow">web2py</span></div></td></tr><tr><td><div>False</div></td></tr><tr><td><div>None</div></td></tr><tr><td><div><table><tr><td><div><table><tr><td><div>My Sites</div></td></tr><tr><td><div>False</div></td></tr><tr><td><div>/admin/default/site</div></td></tr></table></div></td></tr><tr><td><div><table><tr><td><div>This App</div></td></tr><tr><td><div>False</div></td></tr><tr><td><div>/admin/default/design/FINAL</div></td></tr><tr><td><div>[(&lt;lazyT &#x27;Controller&#x27;&gt;, False, &#x27;/admin/default/edit/FINAL/controllers/pedido.py&#x27;), (&lt;lazyT &#x27;View&#x27;&gt;, False, &#x27;/admin/default/edit/FINAL/views/pedido/imprimir_pedido.html&#x27;), (&lt;lazyT &#x27;Layout&#x27;&gt;, False, &#x27;/admin/default/edit/FINAL/views/layout.html&#x27;), (&lt;lazyT &#x27;Stylesheet&#x27;&gt;, False, &#x27;/admin/default/edit/FINAL/static/css/web2py.css&#x27;), (&lt;lazyT &#x27;DB Model&#x27;&gt;, False, &#x27;/admin/default/edit/FINAL/models/db.py&#x27;), (&lt;lazyT &#x27;Menu Model&#x27;&gt;, False, &#x27;/admin/default/edit/FINAL/models/menu.py&#x27;), (&lt;lazyT &#x27;Database&#x27;&gt;, False, &#x27;/FINAL/appadmin/index&#x27;), (&lt;lazyT &#x27;Errors&#x27;&gt;, False, &#x27;/admin/default/errors/FINAL&#x27;), (&lt;lazyT &#x27;About&#x27;&gt;, False, &#x27;/admin/default/about/FINAL&#x27;)]</div></td></tr></table></div></td></tr><tr><td><div><table><tr><td><div>web2py.com</div></td></tr><tr><td><div>False</div></td></tr><tr><td><div>http://www.web2py.com</div></td></tr><tr><td><div>[(&lt;lazyT &#x27;Download&#x27;&gt;, False, &#x27;http://www.web2py.com/examples/default/download&#x27;), (&lt;lazyT &#x27;Support&#x27;&gt;, False, &#x27;http://www.web2py.com/examples/default/support&#x27;), (&lt;lazyT &#x27;Demo&#x27;&gt;, False, &#x27;http://web2py.com/demo_admin&#x27;), (&lt;lazyT &#x27;Quick Examples&#x27;&gt;, False, &#x27;http://web2py.com/examples/default/examples&#x27;), (&lt;lazyT &#x27;FAQ&#x27;&gt;, False, &#x27;http://web2py.com/AlterEgo&#x27;), (&lt;lazyT &#x27;Videos&#x27;&gt;, False, &#x27;http://www.web2py.com/examples/default/videos/&#x27;), (&lt;lazyT &#x27;Free Applications&#x27;&gt;, False, &#x27;http://web2py.com/appliances&#x27;), (&lt;lazyT &#x27;Plugins&#x27;&gt;, False, &#x27;http://web2py.com/plugins&#x27;), (&lt;lazyT &#x27;Layouts&#x27;&gt;, False, &#x27;http://web2py.com/layouts&#x27;), (&lt;lazyT &#x27;Recipes&#x27;&gt;, False, &#x27;http://web2pyslices.com/&#x27;), (&lt;lazyT &#x27;Semantic&#x27;&gt;, False, &#x27;http://web2py.com/semantic&#x27;)]</div></td></tr></table></div></td></tr><tr><td><div><table><tr><td><div>Documentaci\xc3\xb3n</div></td></tr><tr><td><div>False</div></td></tr><tr><td><div>http://www.web2py.com/book</div></td></tr><tr><td><div>[(&lt;lazyT &#x27;Preface&#x27;&gt;, False, &#x27;http://www.web2py.com/book/default/chapter/00&#x27;), (&lt;lazyT &#x27;Introduction&#x27;&gt;, False, &#x27;http://www.web2py.com/book/default/chapter/01&#x27;), (&lt;lazyT &#x27;Python&#x27;&gt;, False, &#x27;http://www.web2py.com/book/default/chapter/02&#x27;), (&lt;lazyT &#x27;Overview&#x27;&gt;, False, &#x27;http://www.web2py.com/book/default/chapter/03&#x27;), (&lt;lazyT &#x27;The Core&#x27;&gt;, False, &#x27;http://www.web2py.com/book/default/chapter/04&#x27;), (&lt;lazyT &#x27;The Views&#x27;&gt;, False, &#x27;http://www.web2py.com/book/default/chapter/05&#x27;), (&lt;lazyT &#x27;Database&#x27;&gt;, False, &#x27;http://www.web2py.com/book/default/chapter/06&#x27;), (&lt;lazyT &#x27;Forms and Validators&#x27;&gt;, False, &#x27;http://www.web2py.com/book/default/chapter/07&#x27;), (&lt;lazyT &#x27;Email and SMS&#x27;&gt;, False, &#x27;http://www.web2py.com/book/default/chapter/08&#x27;), (&lt;lazyT &#x27;Access Control&#x27;&gt;, False, &#x27;http://www.web2py.com/book/default/chapter/09&#x27;), (&lt;lazyT &#x27;Services&#x27;&gt;, False, &#x27;http://www.web2py.com/book/default/chapter/10&#x27;), (&lt;lazyT &#x27;Ajax Recipes&#x27;&gt;, False, &#x27;http://www.web2py.com/book/default/chapter/11&#x27;), (&lt;lazyT &#x27;Components and Plugins&#x27;&gt;, False, &#x27;http://www.web2py.com/book/default/chapter/12&#x27;), (&lt;lazyT &#x27;Deployment Recipes&#x27;&gt;, False, &#x27;http://www.web2py.com/book/default/chapter/13&#x27;), (&lt;lazyT &#x27;Other Recipes&#x27;&gt;, False, &#x27;http://www.web2py.com/book/default/chapter/14&#x27;), (&lt;lazyT &#x27;Buy this book&#x27;&gt;, False, &#x27;http://stores.lulu.com/web2py&#x27;)]</div></td></tr></table></div></td></tr><tr><td><div><table><tr><td><div>Community</div></td></tr><tr><td><div>False</div></td></tr><tr><td><div>None</div></td></tr><tr><td><div>[(&lt;lazyT &#x27;Groups&#x27;&gt;, False, &#x27;http://www.web2py.com/examples/default/usergroups&#x27;), (&lt;lazyT &#x27;Twitter&#x27;&gt;, False, &#x27;http://twitter.com/web2py&#x27;), (&lt;lazyT &#x27;Live Chat&#x27;&gt;, False, &#x27;http://webchat.freenode.net/?channels=web2py&#x27;)]</div></td></tr></table></div></td></tr><tr><td><div><table><tr><td><div>Plugins</div></td></tr><tr><td><div>False</div></td></tr><tr><td><div>None</div></td></tr><tr><td><div>[(&#x27;plugin_wiki&#x27;, False, &#x27;http://web2py.com/examples/default/download&#x27;), (&lt;lazyT &#x27;Other Plugins&#x27;&gt;, False, &#x27;http://web2py.com/plugins&#x27;), (&lt;lazyT &#x27;Layout Plugins&#x27;&gt;, False, &#x27;http://web2py.com/layouts&#x27;)]</div></td></tr></table></div></td></tr></table></div></td></tr></table></div></td></tr></table></div></td></tr><tr><td style="font-weight:bold;vertical-align:top;">meta</td><td style="vertical-align:top;">:</td><td><div><table><tr><td style="font-weight:bold;vertical-align:top;">author</td><td style="vertical-align:top;">:</td><td><div>Your Name &lt;you@example.com&gt;</div></td></tr><tr><td style="font-weight:bold;vertical-align:top;">copyright</td><td style="vertical-align:top;">:</td><td><div>Copyright 2011</div></td></tr><tr><td style="font-weight:bold;vertical-align:top;">description</td><td style="vertical-align:top;">:</td><td><div>a cool new app</div></td></tr><tr><td style="font-weight:bold;vertical-align:top;">generator</td><td style="vertical-align:top;">:</td><td><div>Web2py Web Framework</div></td></tr><tr><td style="font-weight:bold;vertical-align:top;">keywords</td><td style="vertical-align:top;">:</td><td><div>web2py, python, framework</div></td></tr></table></div></td></tr><tr><td style="font-weight:bold;vertical-align:top;">models_to_run</td><td style="vertical-align:top;">:</td><td><div><table><tr><td><div>^\\w+\\.py$</div></td></tr><tr><td><div>^pedido/\\w+\\.py$</div></td></tr><tr><td><div>^pedido/imprimir_pedido/\\w+\\.py$</div></td></tr></table></div></td></tr><tr><td style="font-weight:bold;vertical-align:top;">postprocessing</td><td style="vertical-align:top;">:</td><td><div><table></table></div></td></tr><tr><td style="font-weight:bold;vertical-align:top;">session_client</td><td style="vertical-align:top;">:</td><td><div>127.0.0.1</div></td></tr><tr><td style="font-weight:bold;vertical-align:top;">session_cookie_compression_level</td><td style="vertical-align:top;">:</td><td><div>None</div></td></tr><tr><td style="font-weight:bold;vertical-align:top;">session_cookie_expires</td><td style="vertical-align:top;">:</td><td><div>None</div></td></tr><tr><td style="font-weight:bold;vertical-align:top;">session_data_name</td><td style="vertical-align:top;">:</td><td><div>session_data_final</div></td></tr><tr><td style="font-weight:bold;vertical-align:top;">session_file</td><td style="vertical-align:top;">:</td><td><div>&lt;open file &#x27;/home/angel/web2py/applications/FINAL/sessions/10b/0c4/127.0.0.1-78f48e96-f0ac-4301-a796-c2d6562db76a&#x27;, mode &#x27;rb+&#x27; at 0xad5341d8&gt;</div></td></tr><tr><td style="font-weight:bold;vertical-align:top;">session_filename</td><td style="vertical-align:top;">:</td><td><div>/home/angel/web2py/applications/FINAL/sessions/127.0.0.1-78f48e96-f0ac-4301-a796-c2d6562db76a</div></td></tr><tr><td style="font-weight:bold;vertical-align:top;">session_hash</td><td style="vertical-align:top;">:</td><td><div>7bef490b9eb5acdd9bb6c1635acc846e</div></td></tr><tr><td style="font-weight:bold;vertical-align:top;">session_id</td><td style="vertical-align:top;">:</td><td><div>127.0.0.1-78f48e96-f0ac-4301-a796-c2d6562db76a</div></td></tr><tr><td style="font-weight:bold;vertical-align:top;">session_id_name</td><td style="vertical-align:top;">:</td><td><div>session_id_final</div></td></tr><tr><td style="font-weight:bold;vertical-align:top;">session_locked</td><td style="vertical-align:top;">:</td><td><div>True</div></td></tr><tr><td style="font-weight:bold;vertical-align:top;">session_masterapp</td><td style="vertical-align:top;">:</td><td><div>FINAL</div></td></tr><tr><td style="font-weight:bold;vertical-align:top;">session_new</td><td style="vertical-align:top;">:</td><td><div>False</div></td></tr><tr><td style="font-weight:bold;vertical-align:top;">session_storage_type</td><td style="vertical-align:top;">:</td><td><div>file</div></td></tr><tr><td style="font-weight:bold;vertical-align:top;">status</td><td style="vertical-align:top;">:</td><td><div>200</div></td></tr><tr><td style="font-weight:bold;vertical-align:top;">subtitle</td><td style="vertical-align:top;">:</td><td><div>Adaptame!</div></td></tr><tr><td style="font-weight:bold;vertical-align:top;">title</td><td style="vertical-align:top;">:</td><td><div>Final</div></td></tr><tr><td style="font-weight:bold;vertical-align:top;">view</td><td style="vertical-align:top;">:</td><td><div>pedido/imprimir_pedido.html</div></td></tr></table></div>'
tRp144
sS'locals'
p145
(dp146
ssS'traceback'
p147
S'Traceback (most recent call last):\n  File "/home/angel/web2py/gluon/restricted.py", line 227, in restricted\n    exec ccode in environment\n  File "/home/angel/web2py/applications/FINAL/controllers/pedido.py", line 587, in <module>\n  File "/home/angel/web2py/gluon/globals.py", line 417, in <lambda>\n    self._caller = lambda f: f()\n  File "/home/angel/web2py/applications/FINAL/controllers/pedido.py", line 525, in imprimir_pedido\n    pedido_id =request.args[0]\nIndexError: list index out of range\n'
p148
s.