(dp1
S'output'
p2
S"<type 'exceptions.IOError'> [Errno socket error] [Errno -2] Name or service not known"
p3
sS'layer'
p4
S'/home/angel/web2py/applications/FINAL/controllers/articulo.py'
p5
sS'code'
p6
S'def index():\n    if not auth.user_id:\n        redirect(URL(r=request, c="default", f="prohibido"))\n    \n    # SELECCIONA EL LAYOUT SEGUN EL USUARIO QUE SEA\n    esqueleto=\'layout.html\'\n    if auth.has_membership (group_id=3):\n        esqueleto=\'layout_pedido.html\'\n    elif auth.has_membership (group_id=4):\n        esqueleto=\'layout_gestionar.html\'\n    return dict(esqueleto = esqueleto)\ndef indice():\n    products = db(db.articulo).select(orderby=db.articulo.sortable)\n    return locals()\n# login, registration, etcetera\ndef user():\n    return dict(form=auth())\n\n# an action to download uploaded images\ndef download():\n    return response.download(request,db)\n\n# an action to expose web services\ndef call():\n    session.forget()\n    return service()\n\n\n# an action to see and process a shopping cart\n@auth.requires_membership(role=\'Cliente\')\n\ndef cart():\n    if not session.cart:\n        session.flash = \'agregue su articulo al carrito\'\n    redirect(URL(\'indice\'))\n    return dict(cart=session.cart)\n \n# time to pay ... now for real\n\ndef buy():\n    if not session.cart:\n        session.flash = \'Bienvenido agrege su compra\'\n        redirect(URL(\'index\'))\n    import uuid\n    from gluon.contrib.AuthorizeNet import process\n    invoice = str(uuid.uuid4())\n    total = sum(db.articulo(id).precio_Venta_Articulo*qty for id,qty in session.cart.items())\n\n    form = SQLFORM.factory(\n               Field(\'creditcard\',default=\'4427802641004797\',\n               label=T(\'TARJETA DE CREDITO\'),requires=IS_NOT_EMPTY()),\n               Field(\'expiration\',\n               label=T(\'FECHA DE VENCIMIENTO\')\n               ,default=\'12/2012\',requires=IS_MATCH(\'\\d{2}/\\d{4}\')),\n               Field(\'cvv\',default=\'123\',requires=IS_MATCH(\'\\d{3}\')),\n               Field(\'shipping_address\',\n               label=T(\'DIRECCIO DE ENVIO\'),\n               requires=IS_NOT_EMPTY()),\n               Field(\'shipping_city\'\n               ,label=T(\'NOMBRE DE LA CIUDAD\'),\n               requires=IS_NOT_EMPTY()),\n               Field(\'shipping_state\',\n               label=T(\'NOMBRE DE LOCALIDAD\'),\n               requires=IS_NOT_EMPTY()),\n               Field(\'shipping_zip_code\',label=T(\'CODIGO POSTAL DE ENVIO\'),\n               requires=IS_MATCH(\'\\d{5}(\\-\\d{4})?\')))\n            \n    if form.accepts(request,session):\n        if process(form.vars.creditcard,form.vars.expiration,\n                   total,form.vars.cvv,0.0,invoice,testmode=True):\n            for key, value in session.cart.items():\n                db.sale.insert(invoice=invoice,\n                               buyer=auth.user.id,\n                               product = key,\n                               quantity = value,\n                               price = db.articulo(key).precio_Venta_Articulo,\n                               creditcard = form.vars.creditcard,\n                               shipping_address = form.vars.shipping_address,\n                               shipping_city = form.vars.shipping_city,\n                               shipping_state = form.vars.shipping_state)\n\n                if form.accepts(request,session):\n                    db.Remito.insert(numero_remito=numero_remito,\n                                   cliente_domicilio=form.vars.shipping_address,\n                                   localidad_id_destino= form.vars.shipping_address,\n                                   detalle= key,\n                                   cliente_id= auth.user.id  )   \n          \n            session.cart.clear()          \n            session.flash = \'GRACIAS POR REALIZAR SU PEDIDO\'\n            redirect(URL(\'invoice\',args=invoice))               \n        else:\n            response.flash = "payment rejected (please call XXX)"\n\n          \n    return dict(cart=session.cart,form=form,total=total)\n    \n@auth.requires_login()\ndef invoice():\n\n    return dict(invoice=request.args(0))\n    \n# an action to add and remove items from the shopping cart\ndef cart_callback():\n    id = int(request.vars.id)\n    if request.vars.action == \'add\':\n        session.cart[id]=session.cart.get(id,0)+1    \n    if request.vars.action == \'sub\':\n        session.cart[id]=max(0,session.cart.get(id,0)-1)\n    return str(session.cart[id])\n\n@auth.requires_login()\ndef myorders():\n\n    orders = db(db.sale.buyer==auth.user.id).select(orderby=~db.sale.created_on,) \n    return dict(orders=orders)\n    \n\ndef products():\n    products = db(db.articulo).select()\n    return dict(products=products)\n    \n\ndef edit_product():\n    form = crud.update(db.articulo,request.args(0))\n    return dict(form=form)\n    \n\ndef users():\n    db.auth_user.id.represent=lambda id:A(\'info\',_href=URL(\'info_user\',args=id))\n    form,items = crud.search(db.auth_user)\n    return dict(form=form,users=items)\n    \n\ndef info_user():\n    form = crud.read(db.auth_user,request.args(0))\n    orders = db(db.sale.buyer==request.args(0)).select(orderby=~db.sale.created_on)\n    return dict(form=form,orders=orders)        \n\n\ndef edit_order():\n    db.sale.invoice.writable=False\n    db.sale.buyer.writable=False\n    db.sale.creditcard.writable=False\n    db.sale.product.writable=False\n    form = crud.update(db.sale,request.args(0))\n    return dict(form=form)\n###########################################\n\n\n################################################################\ndef factura():\n    # busco ultima factura:\n    factura = db(db.sale.id>0).select(db.sale.invoice,orderby=db.sale.invoice)\n    if factura:\n        nro=factura[0].nro_fact+1\n    else:\n        nro=1\n        \n    # agregar factura (guardo el n\xc3\xbamero de identificaci\xc3\xb3n id):\n    invoice_id=db.factura.insert(\n# Cliente (usuario conectado)! \n        numero=nro, \n        fecha=request.now, \n        cod_cli=auth.user_id,\n        lugar_entrega=\'\', # ver de preguntarlo en un formulario\n        )\n\n    # agrego los art\xc3\xadculos a la factura\n    for product_id, qty,value  in session.cart:\n        products = db(db.articulo.articulo_id == product_id).select()\n        if products:\n            product = products[0]\n            total_price = sum(db.articulo(id).precio_Venta_Articulo*qty for id,qty in session.cart.items())\n            db.factura_item.insert(\n                invoice_id=invoice_id,\n                product_id=product_id,\n                quantity=qty,\n                price= product.price,\n                sub_total=total_price,\n                )\n        else:\n            # producto invalido##\n            pass\n    del session.cart\n    session.balance = 0\n    redirect(URL(r=request,f=\'show_invoice\',args=invoice_id))\ndef show_invoice():\n    invoice_id =request.args[0]\n    # busco la factura para mostrarla\n    factura = db(db.factura.id==invoice_id).select()[0]\n    client = db(db.auth_user.id==factura.cod_cli).select()[0]\n    # busco los articulos de la factura para mostrarlos\n    query = db.factura_item.invoice_id==invoice_id\n    query &= db.articulo.articulo_id == db.factura_item.product_id\n    invoice_lines =  db(query).select()\n\n    return dict(nro_factura=invoice.numero, invoice=invoice, client=client,\n                invoice_lines=invoice_lines)\n###################################################\n                \ndef generar_factura():\n    # creamos la factur\n    # recorro los art/cant/precio\n\n    \n    redirect(URL(\'imprimir_factura\'))\n    \ndef imprimir_factura():\n    nro_fact = request.vars[\'nro_fact\']\n    # buscar factura\n    fact = db(db.factura.nro_fact==nro_fact).select().first()\n    # buscar cliente\n    cli = db(db.auth_user.id).select().first()\n    # busco ventas\n    datos_venta = []\n    for sale in db(db.Factura_venta).select():\n        # busco el articulo\n        art = db(db.articulo.codigo_Articulo==sale.product).select().first()\n        datos_venta.append({\n            \'cod_art\': venta.cod_art,\n            \'importe\': venta.importe,\n            \'cant\': venta.cant,\n            \'descripcion\': art.descripcion,\n            })\n    factura_impresa = {\n         \'nro_fact\': nro_fact,\n         \'cod_cli\': fact.cod_cli,\n         \'nombre_cliente\': cli.nombre,\n         \'domicilio_cliente\': cli.domicilio,\n         \'total\': fact.total,\n         \'datos_ventas\': datos_venta\n         } \n    return factura_impresa\n####################################\n\nresponse._vars=response._caller(buy)\n'
p7
sS'snapshot'
p8
(dp9
S'exception'
p10
(dp11
S'__getslice__'
p12
S"<method-wrapper '__getslice__' of exceptions.IOError object>"
p13
sS'__str__'
p14
S"<method-wrapper '__str__' of exceptions.IOError object>"
p15
sS'__reduce__'
p16
S'<built-in method __reduce__ of exceptions.IOError object>'
p17
sS'__dict__'
p18
S'{}'
p19
sS'__sizeof__'
p20
S'<built-in method __sizeof__ of exceptions.IOError object>'
p21
sS'__init__'
p22
S"<method-wrapper '__init__' of exceptions.IOError object>"
p23
sS'__setattr__'
p24
S"<method-wrapper '__setattr__' of exceptions.IOError object>"
p25
sS'__reduce_ex__'
p26
S'<built-in method __reduce_ex__ of exceptions.IOError object>'
p27
sS'__new__'
p28
S'<built-in method __new__ of type object>'
p29
sS'errno'
p30
S"'socket error'"
p31
sS'__format__'
p32
S'<built-in method __format__ of exceptions.IOError object>'
p33
sS'__class__'
p34
S"<type 'exceptions.IOError'>"
p35
sS'filename'
p36
S'None'
p37
sS'__doc__'
p38
S"'I/O operation failed.'"
p39
sS'__getitem__'
p40
S"<method-wrapper '__getitem__' of exceptions.IOError object>"
p41
sS'__setstate__'
p42
S'<built-in method __setstate__ of exceptions.IOError object>'
p43
sS'__getattribute__'
p44
S"<method-wrapper '__getattribute__' of exceptions.IOError object>"
p45
sS'args'
p46
S"('socket error', gaierror(-2, 'Name or service not known'))"
p47
sS'__subclasshook__'
p48
S'<built-in method __subclasshook__ of type object>'
p49
sS'__unicode__'
p50
S'<built-in method __unicode__ of exceptions.IOError object>'
p51
sS'strerror'
p52
S"gaierror(-2, 'Name or service not known')"
p53
sS'__delattr__'
p54
S"<method-wrapper '__delattr__' of exceptions.IOError object>"
p55
sS'__repr__'
p56
S"<method-wrapper '__repr__' of exceptions.IOError object>"
p57
sS'__hash__'
p58
S"<method-wrapper '__hash__' of exceptions.IOError object>"
p59
ssS'evalue'
p60
S'[Errno socket error] [Errno -2] Name or service not known'
p61
sS'request'
p62
cgluon.html
XML_unpickle
p63
(S's\x95v\x00\x00<div><table><tr><td style="font-weight:bold;vertical-align:top;">ajax</td><td style="vertical-align:top;">:</td><td><div>False</div></td></tr><tr><td style="font-weight:bold;vertical-align:top;">application</td><td style="vertical-align:top;">:</td><td><div>FINAL</div></td></tr><tr><td style="font-weight:bold;vertical-align:top;">args</td><td style="vertical-align:top;">:</td><td><div><table></table></div></td></tr><tr><td style="font-weight:bold;vertical-align:top;">cid</td><td style="vertical-align:top;">:</td><td><div>None</div></td></tr><tr><td style="font-weight:bold;vertical-align:top;">client</td><td style="vertical-align:top;">:</td><td><div>127.0.0.1</div></td></tr><tr><td style="font-weight:bold;vertical-align:top;">controller</td><td style="vertical-align:top;">:</td><td><div>articulo</div></td></tr><tr><td style="font-weight:bold;vertical-align:top;">cookies</td><td style="vertical-align:top;">:</td><td><div><table><tr><td style="font-weight:bold;vertical-align:top;">adminLanguage</td><td style="vertical-align:top;">:</td><td><div>es<table><tr><td style="font-weight:bold;vertical-align:top;">comment</td><td style="vertical-align:top;">:</td><td><div></div></td></tr><tr><td style="font-weight:bold;vertical-align:top;">domain</td><td style="vertical-align:top;">:</td><td><div></div></td></tr><tr><td style="font-weight:bold;vertical-align:top;">expires</td><td style="vertical-align:top;">:</td><td><div></div></td></tr><tr><td style="font-weight:bold;vertical-align:top;">httponly</td><td style="vertical-align:top;">:</td><td><div></div></td></tr><tr><td style="font-weight:bold;vertical-align:top;">max-age</td><td style="vertical-align:top;">:</td><td><div></div></td></tr><tr><td style="font-weight:bold;vertical-align:top;">path</td><td style="vertical-align:top;">:</td><td><div></div></td></tr><tr><td style="font-weight:bold;vertical-align:top;">secure</td><td style="vertical-align:top;">:</td><td><div></div></td></tr><tr><td style="font-weight:bold;vertical-align:top;">version</td><td style="vertical-align:top;">:</td><td><div></div></td></tr></table></div></td></tr><tr><td style="font-weight:bold;vertical-align:top;">session_id_admin</td><td style="vertical-align:top;">:</td><td><div>127.0.0.1-187332fd-c6e4-4fa5-865c-d107274864a7<table><tr><td style="font-weight:bold;vertical-align:top;">comment</td><td style="vertical-align:top;">:</td><td><div></div></td></tr><tr><td style="font-weight:bold;vertical-align:top;">domain</td><td style="vertical-align:top;">:</td><td><div></div></td></tr><tr><td style="font-weight:bold;vertical-align:top;">expires</td><td style="vertical-align:top;">:</td><td><div></div></td></tr><tr><td style="font-weight:bold;vertical-align:top;">httponly</td><td style="vertical-align:top;">:</td><td><div></div></td></tr><tr><td style="font-weight:bold;vertical-align:top;">max-age</td><td style="vertical-align:top;">:</td><td><div></div></td></tr><tr><td style="font-weight:bold;vertical-align:top;">path</td><td style="vertical-align:top;">:</td><td><div></div></td></tr><tr><td style="font-weight:bold;vertical-align:top;">secure</td><td style="vertical-align:top;">:</td><td><div></div></td></tr><tr><td style="font-weight:bold;vertical-align:top;">version</td><td style="vertical-align:top;">:</td><td><div></div></td></tr></table></div></td></tr><tr><td style="font-weight:bold;vertical-align:top;">session_id_adminstr</td><td style="vertical-align:top;">:</td><td><div>127.0.0.1-ecce4fea-85a0-4d9c-9d17-5cb32a4676cf<table><tr><td style="font-weight:bold;vertical-align:top;">comment</td><td style="vertical-align:top;">:</td><td><div></div></td></tr><tr><td style="font-weight:bold;vertical-align:top;">domain</td><td style="vertical-align:top;">:</td><td><div></div></td></tr><tr><td style="font-weight:bold;vertical-align:top;">expires</td><td style="vertical-align:top;">:</td><td><div></div></td></tr><tr><td style="font-weight:bold;vertical-align:top;">httponly</td><td style="vertical-align:top;">:</td><td><div></div></td></tr><tr><td style="font-weight:bold;vertical-align:top;">max-age</td><td style="vertical-align:top;">:</td><td><div></div></td></tr><tr><td style="font-weight:bold;vertical-align:top;">path</td><td style="vertical-align:top;">:</td><td><div></div></td></tr><tr><td style="font-weight:bold;vertical-align:top;">secure</td><td style="vertical-align:top;">:</td><td><div></div></td></tr><tr><td style="font-weight:bold;vertical-align:top;">version</td><td style="vertical-align:top;">:</td><td><div></div></td></tr></table></div></td></tr><tr><td style="font-weight:bold;vertical-align:top;">session_id_final</td><td style="vertical-align:top;">:</td><td><div>127.0.0.1-5f5d6c2d-0005-41e7-81a2-19c4bfdee258<table><tr><td style="font-weight:bold;vertical-align:top;">comment</td><td style="vertical-align:top;">:</td><td><div></div></td></tr><tr><td style="font-weight:bold;vertical-align:top;">domain</td><td style="vertical-align:top;">:</td><td><div></div></td></tr><tr><td style="font-weight:bold;vertical-align:top;">expires</td><td style="vertical-align:top;">:</td><td><div></div></td></tr><tr><td style="font-weight:bold;vertical-align:top;">httponly</td><td style="vertical-align:top;">:</td><td><div></div></td></tr><tr><td style="font-weight:bold;vertical-align:top;">max-age</td><td style="vertical-align:top;">:</td><td><div></div></td></tr><tr><td style="font-weight:bold;vertical-align:top;">path</td><td style="vertical-align:top;">:</td><td><div></div></td></tr><tr><td style="font-weight:bold;vertical-align:top;">secure</td><td style="vertical-align:top;">:</td><td><div></div></td></tr><tr><td style="font-weight:bold;vertical-align:top;">version</td><td style="vertical-align:top;">:</td><td><div></div></td></tr></table></div></td></tr><tr><td style="font-weight:bold;vertical-align:top;">session_id_gestion_comercial</td><td style="vertical-align:top;">:</td><td><div>127.0.0.1-f160bdd2-a0fe-43b1-929f-89efb6c96f39<table><tr><td style="font-weight:bold;vertical-align:top;">comment</td><td style="vertical-align:top;">:</td><td><div></div></td></tr><tr><td style="font-weight:bold;vertical-align:top;">domain</td><td style="vertical-align:top;">:</td><td><div></div></td></tr><tr><td style="font-weight:bold;vertical-align:top;">expires</td><td style="vertical-align:top;">:</td><td><div></div></td></tr><tr><td style="font-weight:bold;vertical-align:top;">httponly</td><td style="vertical-align:top;">:</td><td><div></div></td></tr><tr><td style="font-weight:bold;vertical-align:top;">max-age</td><td style="vertical-align:top;">:</td><td><div></div></td></tr><tr><td style="font-weight:bold;vertical-align:top;">path</td><td style="vertical-align:top;">:</td><td><div></div></td></tr><tr><td style="font-weight:bold;vertical-align:top;">secure</td><td style="vertical-align:top;">:</td><td><div></div></td></tr><tr><td style="font-weight:bold;vertical-align:top;">version</td><td style="vertical-align:top;">:</td><td><div></div></td></tr></table></div></td></tr><tr><td style="font-weight:bold;vertical-align:top;">session_id_posonlinestore</td><td style="vertical-align:top;">:</td><td><div>127.0.0.1-929f5874-b691-4a8d-a2a4-d50758e82950<table><tr><td style="font-weight:bold;vertical-align:top;">comment</td><td style="vertical-align:top;">:</td><td><div></div></td></tr><tr><td style="font-weight:bold;vertical-align:top;">domain</td><td style="vertical-align:top;">:</td><td><div></div></td></tr><tr><td style="font-weight:bold;vertical-align:top;">expires</td><td style="vertical-align:top;">:</td><td><div></div></td></tr><tr><td style="font-weight:bold;vertical-align:top;">httponly</td><td style="vertical-align:top;">:</td><td><div></div></td></tr><tr><td style="font-weight:bold;vertical-align:top;">max-age</td><td style="vertical-align:top;">:</td><td><div></div></td></tr><tr><td style="font-weight:bold;vertical-align:top;">path</td><td style="vertical-align:top;">:</td><td><div></div></td></tr><tr><td style="font-weight:bold;vertical-align:top;">secure</td><td style="vertical-align:top;">:</td><td><div></div></td></tr><tr><td style="font-weight:bold;vertical-align:top;">version</td><td style="vertical-align:top;">:</td><td><div></div></td></tr></table></div></td></tr><tr><td style="font-weight:bold;vertical-align:top;">session_id_welcome</td><td style="vertical-align:top;">:</td><td><div>127.0.0.1-142b350a-7158-4605-8075-8c93e0b1e6ab<table><tr><td style="font-weight:bold;vertical-align:top;">comment</td><td style="vertical-align:top;">:</td><td><div></div></td></tr><tr><td style="font-weight:bold;vertical-align:top;">domain</td><td style="vertical-align:top;">:</td><td><div></div></td></tr><tr><td style="font-weight:bold;vertical-align:top;">expires</td><td style="vertical-align:top;">:</td><td><div></div></td></tr><tr><td style="font-weight:bold;vertical-align:top;">httponly</td><td style="vertical-align:top;">:</td><td><div></div></td></tr><tr><td style="font-weight:bold;vertical-align:top;">max-age</td><td style="vertical-align:top;">:</td><td><div></div></td></tr><tr><td style="font-weight:bold;vertical-align:top;">path</td><td style="vertical-align:top;">:</td><td><div></div></td></tr><tr><td style="font-weight:bold;vertical-align:top;">secure</td><td style="vertical-align:top;">:</td><td><div></div></td></tr><tr><td style="font-weight:bold;vertical-align:top;">version</td><td style="vertical-align:top;">:</td><td><div></div></td></tr></table></div></td></tr></table></div></td></tr><tr><td style="font-weight:bold;vertical-align:top;">env</td><td style="vertical-align:top;">:</td><td><div><table><tr><td style="font-weight:bold;vertical-align:top;">CONTENT_LENGTH</td><td style="vertical-align:top;">:</td><td><div>1234</div></td></tr><tr><td style="font-weight:bold;vertical-align:top;">CONTENT_TYPE</td><td style="vertical-align:top;">:</td><td><div>multipart/form-data; boundary=---------------------------168002727114889089761128664964</div></td></tr><tr><td style="font-weight:bold;vertical-align:top;">HTTP_ACCEPT</td><td style="vertical-align:top;">:</td><td><div>text/html,application/xhtml+xml,application/xml;q=0.9,*/*;q=0.8</div></td></tr><tr><td style="font-weight:bold;vertical-align:top;">HTTP_ACCEPT_ENCODING</td><td style="vertical-align:top;">:</td><td><div>gzip, deflate</div></td></tr><tr><td style="font-weight:bold;vertical-align:top;">HTTP_ACCEPT_LANGUAGE</td><td style="vertical-align:top;">:</td><td><div>en-US,en;q=0.5</div></td></tr><tr><td style="font-weight:bold;vertical-align:top;">HTTP_CONNECTION</td><td style="vertical-align:top;">:</td><td><div>keep-alive</div></td></tr><tr><td style="font-weight:bold;vertical-align:top;">HTTP_CONTENT_LENGTH</td><td style="vertical-align:top;">:</td><td><div>1234</div></td></tr><tr><td style="font-weight:bold;vertical-align:top;">HTTP_CONTENT_TYPE</td><td style="vertical-align:top;">:</td><td><div>multipart/form-data; boundary=---------------------------168002727114889089761128664964</div></td></tr><tr><td style="font-weight:bold;vertical-align:top;">HTTP_COOKIE</td><td style="vertical-align:top;">:</td><td><div>session_id_welcome=127.0.0.1-142b350a-7158-4605-8075-8c93e0b1e6ab; session_id_admin=127.0.0.1-187332fd-c6e4-4fa5-865c-d107274864a7; adminLanguage=es; session_id_adminstr=127.0.0.1-ecce4fea-85a0-4d9c-9d17-5cb32a4676cf; session_id_posonlinestore=127.0.0.1-929f5874-b691-4a8d-a2a4-d50758e82950; session_id_gestion_comercial=127.0.0.1-f160bdd2-a0fe-43b1-929f-89efb6c96f39; session_id_final=127.0.0.1-5f5d6c2d-0005-41e7-81a2-19c4bfdee258</div></td></tr><tr><td style="font-weight:bold;vertical-align:top;">HTTP_HOST</td><td style="vertical-align:top;">:</td><td><div>127.0.0.1:8000</div></td></tr><tr><td style="font-weight:bold;vertical-align:top;">HTTP_REFERER</td><td style="vertical-align:top;">:</td><td><div>http://127.0.0.1:8000/FINAL/articulo/buy</div></td></tr><tr><td style="font-weight:bold;vertical-align:top;">HTTP_UPGRADE_INSECURE_REQUESTS</td><td style="vertical-align:top;">:</td><td><div>1</div></td></tr><tr><td style="font-weight:bold;vertical-align:top;">HTTP_USER_AGENT</td><td style="vertical-align:top;">:</td><td><div>Mozilla/5.0 (X11; Ubuntu; Linux i686; rv:50.0) Gecko/20100101 Firefox/50.0</div></td></tr><tr><td style="font-weight:bold;vertical-align:top;">PATH_INFO</td><td style="vertical-align:top;">:</td><td><div>/FINAL/articulo/buy</div></td></tr><tr><td style="font-weight:bold;vertical-align:top;">QUERY_STRING</td><td style="vertical-align:top;">:</td><td><div></div></td></tr><tr><td style="font-weight:bold;vertical-align:top;">REMOTE_ADDR</td><td style="vertical-align:top;">:</td><td><div>127.0.0.1</div></td></tr><tr><td style="font-weight:bold;vertical-align:top;">REMOTE_PORT</td><td style="vertical-align:top;">:</td><td><div>53752</div></td></tr><tr><td style="font-weight:bold;vertical-align:top;">REQUEST_METHOD</td><td style="vertical-align:top;">:</td><td><div>POST</div></td></tr><tr><td style="font-weight:bold;vertical-align:top;">SCRIPT_NAME</td><td style="vertical-align:top;">:</td><td><div></div></td></tr><tr><td style="font-weight:bold;vertical-align:top;">SERVER_NAME</td><td style="vertical-align:top;">:</td><td><div>angel-Cantiga-ICH9M-Chipset</div></td></tr><tr><td style="font-weight:bold;vertical-align:top;">SERVER_PORT</td><td style="vertical-align:top;">:</td><td><div>8000</div></td></tr><tr><td style="font-weight:bold;vertical-align:top;">SERVER_PROTOCOL</td><td style="vertical-align:top;">:</td><td><div>HTTP/1.1</div></td></tr><tr><td style="font-weight:bold;vertical-align:top;">SERVER_SOFTWARE</td><td style="vertical-align:top;">:</td><td><div>Rocket 1.2.6</div></td></tr><tr><td style="font-weight:bold;vertical-align:top;">app_folders</td><td style="vertical-align:top;">:</td><td><div>set([&#x27;/home/angel/web2py/applications/welcome/&#x27;, &#x27;/home/angel/web2py/applications/gestion_comercial/&#x27;, &#x27;/home/angel/web2py/applications/admin/&#x27;, &#x27;/home/angel/web2py/applications/adminstr/&#x27;, &#x27;/home/angel/web2py/applications/FINAL/&#x27;, &#x27;/home/angel/web2py/applications/posonlinestore/&#x27;])</div></td></tr><tr><td style="font-weight:bold;vertical-align:top;">applications_parent</td><td style="vertical-align:top;">:</td><td><div>/home/angel/web2py</div></td></tr><tr><td style="font-weight:bold;vertical-align:top;">cmd_args</td><td style="vertical-align:top;">:</td><td><div><table></table></div></td></tr><tr><td style="font-weight:bold;vertical-align:top;">cmd_options</td><td style="vertical-align:top;">:</td><td><div>&lt;Values at 0xb536122c: {&#x27;verbose&#x27;: False, &#x27;ip&#x27;: &#x27;127.0.0.1&#x27;, &#x27;debuglevel&#x27;: 30, &#x27;with_scheduler&#x27;: False, &#x27;shutdown_timeout&#x27;: 5, &#x27;taskbar&#x27;: False, &#x27;with_coverage&#x27;: False, &#x27;pid_filename&#x27;: &#x27;httpserver.pid&#x27;, &#x27;maxthreads&#x27;: None, &#x27;softcron&#x27;: False, &#x27;server_name&#x27;: &#x27;angel-Cantiga-ICH9M-Chipset&#x27;, &#x27;bpython&#x27;: False, &#x27;nogui&#x27;: False, &#x27;port&#x27;: 8000, &#x27;print_errors&#x27;: False, &#x27;extcron&#x27;: False, &#x27;runcron&#x27;: False, &#x27;run_system_tests&#x27;: False, &#x27;test&#x27;: None, &#x27;folder&#x27;: &#x27;/home/angel/web2py&#x27;, &#x27;config&#x27;: &#x27;&#x27;, &#x27;minthreads&#x27;: None, &#x27;shell&#x27;: None, &#x27;run&#x27;: &#x27;&#x27;, &#x27;log_filename&#x27;: &#x27;httpserver.log&#x27;, &#x27;profiler_dir&#x27;: None, &#x27;args&#x27;: [&#x27;&#x27;], &#x27;socket_timeout&#x27;: 5, &#x27;ssl_ca_certificate&#x27;: None, &#x27;scheduler&#x27;: None, &#x27;interfaces&#x27;: None, &#x27;ssl_private_key&#x27;: &#x27;&#x27;, &#x27;gae&#x27;: None, &#x27;password&#x27;: &#x27;******&#x27;, &#x27;request_queue_size&#x27;: 5, &#x27;ssl_certificate&#x27;: &#x27;&#x27;, &#x27;cronjob&#x27;: False, &#x27;numthreads&#x27;: None, &#x27;quiet&#x27;: False, &#x27;import_models&#x27;: False, &#x27;timeout&#x27;: 10, &#x27;plain&#x27;: False, &#x27;nobanner&#x27;: False}&gt;</div></td></tr><tr><td style="font-weight:bold;vertical-align:top;">content_length</td><td style="vertical-align:top;">:</td><td><div>1234</div></td></tr><tr><td style="font-weight:bold;vertical-align:top;">content_type</td><td style="vertical-align:top;">:</td><td><div>multipart/form-data; boundary=---------------------------168002727114889089761128664964</div></td></tr><tr><td style="font-weight:bold;vertical-align:top;">db_sessions</td><td style="vertical-align:top;">:</td><td><div>set([])</div></td></tr><tr><td style="font-weight:bold;vertical-align:top;">debugging</td><td style="vertical-align:top;">:</td><td><div>True</div></td></tr><tr><td style="font-weight:bold;vertical-align:top;">gluon_parent</td><td style="vertical-align:top;">:</td><td><div>/home/angel/web2py</div></td></tr><tr><td style="font-weight:bold;vertical-align:top;">http_accept</td><td style="vertical-align:top;">:</td><td><div>text/html,application/xhtml+xml,application/xml;q=0.9,*/*;q=0.8</div></td></tr><tr><td style="font-weight:bold;vertical-align:top;">http_accept_encoding</td><td style="vertical-align:top;">:</td><td><div>gzip, deflate</div></td></tr><tr><td style="font-weight:bold;vertical-align:top;">http_accept_language</td><td style="vertical-align:top;">:</td><td><div>en-US,en;q=0.5</div></td></tr><tr><td style="font-weight:bold;vertical-align:top;">http_connection</td><td style="vertical-align:top;">:</td><td><div>keep-alive</div></td></tr><tr><td style="font-weight:bold;vertical-align:top;">http_content_length</td><td style="vertical-align:top;">:</td><td><div>1234</div></td></tr><tr><td style="font-weight:bold;vertical-align:top;">http_content_type</td><td style="vertical-align:top;">:</td><td><div>multipart/form-data; boundary=---------------------------168002727114889089761128664964</div></td></tr><tr><td style="font-weight:bold;vertical-align:top;">http_cookie</td><td style="vertical-align:top;">:</td><td><div>session_id_welcome=127.0.0.1-142b350a-7158-4605-8075-8c93e0b1e6ab; session_id_admin=127.0.0.1-187332fd-c6e4-4fa5-865c-d107274864a7; adminLanguage=es; session_id_adminstr=127.0.0.1-ecce4fea-85a0-4d9c-9d17-5cb32a4676cf; session_id_posonlinestore=127.0.0.1-929f5874-b691-4a8d-a2a4-d50758e82950; session_id_gestion_comercial=127.0.0.1-f160bdd2-a0fe-43b1-929f-89efb6c96f39; session_id_final=127.0.0.1-5f5d6c2d-0005-41e7-81a2-19c4bfdee258</div></td></tr><tr><td style="font-weight:bold;vertical-align:top;">http_host</td><td style="vertical-align:top;">:</td><td><div>127.0.0.1:8000</div></td></tr><tr><td style="font-weight:bold;vertical-align:top;">http_referer</td><td style="vertical-align:top;">:</td><td><div>http://127.0.0.1:8000/FINAL/articulo/buy</div></td></tr><tr><td style="font-weight:bold;vertical-align:top;">http_upgrade_insecure_requests</td><td style="vertical-align:top;">:</td><td><div>1</div></td></tr><tr><td style="font-weight:bold;vertical-align:top;">http_user_agent</td><td style="vertical-align:top;">:</td><td><div>Mozilla/5.0 (X11; Ubuntu; Linux i686; rv:50.0) Gecko/20100101 Firefox/50.0</div></td></tr><tr><td style="font-weight:bold;vertical-align:top;">is_jython</td><td style="vertical-align:top;">:</td><td><div>False</div></td></tr><tr><td style="font-weight:bold;vertical-align:top;">is_pypy</td><td style="vertical-align:top;">:</td><td><div>False</div></td></tr><tr><td style="font-weight:bold;vertical-align:top;">is_source</td><td style="vertical-align:top;">:</td><td><div>True</div></td></tr><tr><td style="font-weight:bold;vertical-align:top;">local_hosts</td><td style="vertical-align:top;">:</td><td><div><table><tr><td><div>::1</div></td></tr><tr><td><div>127.0.1.1</div></td></tr><tr><td><div>angel-Cantiga-ICH9M-Chipset</div></td></tr><tr><td><div>::ffff:127.0.0.1</div></td></tr><tr><td><div>127.0.0.1</div></td></tr></table></div></td></tr><tr><td style="font-weight:bold;vertical-align:top;">path_info</td><td style="vertical-align:top;">:</td><td><div>/FINAL/articulo/buy</div></td></tr><tr><td style="font-weight:bold;vertical-align:top;">query_string</td><td style="vertical-align:top;">:</td><td><div></div></td></tr><tr><td style="font-weight:bold;vertical-align:top;">remote_addr</td><td style="vertical-align:top;">:</td><td><div>127.0.0.1</div></td></tr><tr><td style="font-weight:bold;vertical-align:top;">remote_port</td><td style="vertical-align:top;">:</td><td><div>53752</div></td></tr><tr><td style="font-weight:bold;vertical-align:top;">request_method</td><td style="vertical-align:top;">:</td><td><div>POST</div></td></tr><tr><td style="font-weight:bold;vertical-align:top;">request_uri</td><td style="vertical-align:top;">:</td><td><div>/FINAL/articulo/buy</div></td></tr><tr><td style="font-weight:bold;vertical-align:top;">script_name</td><td style="vertical-align:top;">:</td><td><div></div></td></tr><tr><td style="font-weight:bold;vertical-align:top;">server_name</td><td style="vertical-align:top;">:</td><td><div>angel-Cantiga-ICH9M-Chipset</div></td></tr><tr><td style="font-weight:bold;vertical-align:top;">server_port</td><td style="vertical-align:top;">:</td><td><div>8000</div></td></tr><tr><td style="font-weight:bold;vertical-align:top;">server_protocol</td><td style="vertical-align:top;">:</td><td><div>HTTP/1.1</div></td></tr><tr><td style="font-weight:bold;vertical-align:top;">server_software</td><td style="vertical-align:top;">:</td><td><div>Rocket 1.2.6</div></td></tr><tr><td style="font-weight:bold;vertical-align:top;">web2py_path</td><td style="vertical-align:top;">:</td><td><div>/home/angel/web2py</div></td></tr><tr><td style="font-weight:bold;vertical-align:top;">web2py_version</td><td style="vertical-align:top;">:</td><td><div>2.14.6-stable+timestamp.2016.05.10.00.21.47</div></td></tr><tr><td style="font-weight:bold;vertical-align:top;">wsgi.errors</td><td style="vertical-align:top;">:</td><td><div>&lt;open file &#x27;&lt;stderr&gt;&#x27;, mode &#x27;w&#x27; at 0xb751a0d0&gt;</div></td></tr><tr><td style="font-weight:bold;vertical-align:top;">wsgi.file_wrapper</td><td style="vertical-align:top;">:</td><td><div>&lt;class wsgiref.util.FileWrapper at 0xb61242fc&gt;</div></td></tr><tr><td style="font-weight:bold;vertical-align:top;">wsgi.input</td><td style="vertical-align:top;">:</td><td><div>&lt;socket._fileobject object at 0xace3daac&gt;</div></td></tr><tr><td style="font-weight:bold;vertical-align:top;">wsgi.multiprocess</td><td style="vertical-align:top;">:</td><td><div>False</div></td></tr><tr><td style="font-weight:bold;vertical-align:top;">wsgi.multithread</td><td style="vertical-align:top;">:</td><td><div>True</div></td></tr><tr><td style="font-weight:bold;vertical-align:top;">wsgi.run_once</td><td style="vertical-align:top;">:</td><td><div>False</div></td></tr><tr><td style="font-weight:bold;vertical-align:top;">wsgi.url_scheme</td><td style="vertical-align:top;">:</td><td><div>http</div></td></tr><tr><td style="font-weight:bold;vertical-align:top;">wsgi.version</td><td style="vertical-align:top;">:</td><td><div><table><tr><td><div>1</div></td></tr><tr><td><div>0</div></td></tr></table></div></td></tr><tr><td style="font-weight:bold;vertical-align:top;">wsgi_errors</td><td style="vertical-align:top;">:</td><td><div>&lt;open file &#x27;&lt;stderr&gt;&#x27;, mode &#x27;w&#x27; at 0xb751a0d0&gt;</div></td></tr><tr><td style="font-weight:bold;vertical-align:top;">wsgi_file_wrapper</td><td style="vertical-align:top;">:</td><td><div>&lt;class wsgiref.util.FileWrapper at 0xb61242fc&gt;</div></td></tr><tr><td style="font-weight:bold;vertical-align:top;">wsgi_input</td><td style="vertical-align:top;">:</td><td><div>&lt;socket._fileobject object at 0xace3daac&gt;</div></td></tr><tr><td style="font-weight:bold;vertical-align:top;">wsgi_multiprocess</td><td style="vertical-align:top;">:</td><td><div>False</div></td></tr><tr><td style="font-weight:bold;vertical-align:top;">wsgi_multithread</td><td style="vertical-align:top;">:</td><td><div>True</div></td></tr><tr><td style="font-weight:bold;vertical-align:top;">wsgi_run_once</td><td style="vertical-align:top;">:</td><td><div>False</div></td></tr><tr><td style="font-weight:bold;vertical-align:top;">wsgi_url_scheme</td><td style="vertical-align:top;">:</td><td><div>http</div></td></tr><tr><td style="font-weight:bold;vertical-align:top;">wsgi_version</td><td style="vertical-align:top;">:</td><td><div><table><tr><td><div>1</div></td></tr><tr><td><div>0</div></td></tr></table></div></td></tr></table></div></td></tr><tr><td style="font-weight:bold;vertical-align:top;">extension</td><td style="vertical-align:top;">:</td><td><div>html</div></td></tr><tr><td style="font-weight:bold;vertical-align:top;">folder</td><td style="vertical-align:top;">:</td><td><div>/home/angel/web2py/applications/FINAL/</div></td></tr><tr><td style="font-weight:bold;vertical-align:top;">function</td><td style="vertical-align:top;">:</td><td><div>buy</div></td></tr><tr><td style="font-weight:bold;vertical-align:top;">global_settings</td><td style="vertical-align:top;">:</td><td><div><table><tr><td style="font-weight:bold;vertical-align:top;">app_folders</td><td style="vertical-align:top;">:</td><td><div>set([&#x27;/home/angel/web2py/applications/welcome/&#x27;, &#x27;/home/angel/web2py/applications/gestion_comercial/&#x27;, &#x27;/home/angel/web2py/applications/admin/&#x27;, &#x27;/home/angel/web2py/applications/adminstr/&#x27;, &#x27;/home/angel/web2py/applications/FINAL/&#x27;, &#x27;/home/angel/web2py/applications/posonlinestore/&#x27;])</div></td></tr><tr><td style="font-weight:bold;vertical-align:top;">applications_parent</td><td style="vertical-align:top;">:</td><td><div>/home/angel/web2py</div></td></tr><tr><td style="font-weight:bold;vertical-align:top;">cmd_args</td><td style="vertical-align:top;">:</td><td><div><table></table></div></td></tr><tr><td style="font-weight:bold;vertical-align:top;">cmd_options</td><td style="vertical-align:top;">:</td><td><div>&lt;Values at 0xb536122c: {&#x27;verbose&#x27;: False, &#x27;ip&#x27;: &#x27;127.0.0.1&#x27;, &#x27;debuglevel&#x27;: 30, &#x27;with_scheduler&#x27;: False, &#x27;shutdown_timeout&#x27;: 5, &#x27;taskbar&#x27;: False, &#x27;with_coverage&#x27;: False, &#x27;pid_filename&#x27;: &#x27;httpserver.pid&#x27;, &#x27;maxthreads&#x27;: None, &#x27;softcron&#x27;: False, &#x27;server_name&#x27;: &#x27;angel-Cantiga-ICH9M-Chipset&#x27;, &#x27;bpython&#x27;: False, &#x27;nogui&#x27;: False, &#x27;port&#x27;: 8000, &#x27;print_errors&#x27;: False, &#x27;extcron&#x27;: False, &#x27;runcron&#x27;: False, &#x27;run_system_tests&#x27;: False, &#x27;test&#x27;: None, &#x27;folder&#x27;: &#x27;/home/angel/web2py&#x27;, &#x27;config&#x27;: &#x27;&#x27;, &#x27;minthreads&#x27;: None, &#x27;shell&#x27;: None, &#x27;run&#x27;: &#x27;&#x27;, &#x27;log_filename&#x27;: &#x27;httpserver.log&#x27;, &#x27;profiler_dir&#x27;: None, &#x27;args&#x27;: [&#x27;&#x27;], &#x27;socket_timeout&#x27;: 5, &#x27;ssl_ca_certificate&#x27;: None, &#x27;scheduler&#x27;: None, &#x27;interfaces&#x27;: None, &#x27;ssl_private_key&#x27;: &#x27;&#x27;, &#x27;gae&#x27;: None, &#x27;password&#x27;: &#x27;******&#x27;, &#x27;request_queue_size&#x27;: 5, &#x27;ssl_certificate&#x27;: &#x27;&#x27;, &#x27;cronjob&#x27;: False, &#x27;numthreads&#x27;: None, &#x27;quiet&#x27;: False, &#x27;import_models&#x27;: False, &#x27;timeout&#x27;: 10, &#x27;plain&#x27;: False, &#x27;nobanner&#x27;: False}&gt;</div></td></tr><tr><td style="font-weight:bold;vertical-align:top;">db_sessions</td><td style="vertical-align:top;">:</td><td><div>set([])</div></td></tr><tr><td style="font-weight:bold;vertical-align:top;">debugging</td><td style="vertical-align:top;">:</td><td><div>True</div></td></tr><tr><td style="font-weight:bold;vertical-align:top;">gluon_parent</td><td style="vertical-align:top;">:</td><td><div>/home/angel/web2py</div></td></tr><tr><td style="font-weight:bold;vertical-align:top;">is_jython</td><td style="vertical-align:top;">:</td><td><div>False</div></td></tr><tr><td style="font-weight:bold;vertical-align:top;">is_pypy</td><td style="vertical-align:top;">:</td><td><div>False</div></td></tr><tr><td style="font-weight:bold;vertical-align:top;">is_source</td><td style="vertical-align:top;">:</td><td><div>True</div></td></tr><tr><td style="font-weight:bold;vertical-align:top;">local_hosts</td><td style="vertical-align:top;">:</td><td><div><table><tr><td><div>::1</div></td></tr><tr><td><div>127.0.1.1</div></td></tr><tr><td><div>angel-Cantiga-ICH9M-Chipset</div></td></tr><tr><td><div>::ffff:127.0.0.1</div></td></tr><tr><td><div>127.0.0.1</div></td></tr></table></div></td></tr><tr><td style="font-weight:bold;vertical-align:top;">web2py_version</td><td style="vertical-align:top;">:</td><td><div>2.14.6-stable+timestamp.2016.05.10.00.21.47</div></td></tr></table></div></td></tr><tr><td style="font-weight:bold;vertical-align:top;">is_https</td><td style="vertical-align:top;">:</td><td><div>False</div></td></tr><tr><td style="font-weight:bold;vertical-align:top;">is_local</td><td style="vertical-align:top;">:</td><td><div>True</div></td></tr><tr><td style="font-weight:bold;vertical-align:top;">is_restful</td><td style="vertical-align:top;">:</td><td><div>False</div></td></tr><tr><td style="font-weight:bold;vertical-align:top;">is_scheduler</td><td style="vertical-align:top;">:</td><td><div>False</div></td></tr><tr><td style="font-weight:bold;vertical-align:top;">is_shell</td><td style="vertical-align:top;">:</td><td><div>False</div></td></tr><tr><td style="font-weight:bold;vertical-align:top;">now</td><td style="vertical-align:top;">:</td><td><div>datetime.datetime(2017, 3, 1, 0, 14, 40, 330026)</div></td></tr><tr><td style="font-weight:bold;vertical-align:top;">raw_args</td><td style="vertical-align:top;">:</td><td><div></div></td></tr><tr><td style="font-weight:bold;vertical-align:top;">raw_extension</td><td style="vertical-align:top;">:</td><td><div>None</div></td></tr><tr><td style="font-weight:bold;vertical-align:top;">url</td><td style="vertical-align:top;">:</td><td><div>/FINAL/articulo/buy</div></td></tr><tr><td style="font-weight:bold;vertical-align:top;">utcnow</td><td style="vertical-align:top;">:</td><td><div>datetime.datetime(2017, 3, 1, 3, 14, 40, 330062)</div></td></tr><tr><td style="font-weight:bold;vertical-align:top;">wsgi</td><td style="vertical-align:top;">:</td><td><div>&lt;gluon.main.LazyWSGI object at 0xacb1e2ec&gt;</div></td></tr></table></div>'
tRp64
sS'frames'
p65
(lp66
(dp67
S'file'
p68
S'/home/angel/web2py/gluon/restricted.py'
p69
sS'dump'
p70
(dp71
S'environment'
p72
S"{'A': <class 'gluon.html.A'>, 'ACTIVITY_CATEGORIES': ['acad\\xc3\\xa9mico', 'caso de estudio', 'ciencia', 'cli', 'comunidad', 'core', 'educaci\\xc3\\xb3n', 'fomento', 'gui', 'herramientas', 'juegos', 'lenguaje', 'moviles', 'py3k', 'redes', 'seguridad', 'testing', 'web'], 'ACTIVITY_DURATION': {'poster': 0, 'talk': 45, 'tutorial': 120}, 'ACTIVITY_LEVELS': ('Beginner', 'Intermediate', 'Advanced'), 'ACTIVITY_ROOMS': {1: '5-6-7-8', 2: '9-10', 3: '13+14', 4: '31', 5: '35', 6: '32'}, 'ACTIVITY_SHOW_DESCRIPTION': False, 'ACTIVITY_TYPES': ('keynote', 'panel', 'plenary', 'tutorial', 'talk', 'poster', 'startup', 'stand', 'summit', 'open-space', 'social', 'break', 'lightning talk'), 'ANY_OF': <class 'gluon.validators.ANY_OF'>, 'ASSIGNJS': <function ASSIGNJS>, 'ATTENDEE_TYPES': (('gratis', <lazyT 'Gratuito, $0'>),), ...}"
p73
sS'ccode'
p74
S'<code object <module> at 0xad6aae78, file "/home...lications/FINAL/controllers/articulo.py", line 1>'
p75
ssS'lnum'
p76
I227
sS'lines'
p77
(dp78
I224
S'            ccode = code'
p79
sI225
S'        else:'
p80
sI226
S'            ccode = compile2(code, layer)'
p81
sI227
S'        exec ccode in environment'
p82
sI228
S'    except HTTP:'
p83
sI229
S'        raise'
p84
sI230
S'    except RestrictedError:'
p85
sI231
S'        # do not encapsulate (obfuscate) the original RestrictedError'
p86
sI222
S'    try:'
p87
sI223
S'        if isinstance(code, types.CodeType):'
p88
ssS'call'
p89
S"(code='def index():\\n    if not auth.user_id:\\n        re...##########\\n\\nresponse._vars=response._caller(buy)\\n', environment={'A': <class 'gluon.html.A'>, 'ACTIVITY_CATEGORIES': ['acad\\xc3\\xa9mico', 'caso de estudio', 'ciencia', 'cli', 'comunidad', 'core', 'educaci\\xc3\\xb3n', 'fomento', 'gui', 'herramientas', 'juegos', 'lenguaje', 'moviles', 'py3k', 'redes', 'seguridad', 'testing', 'web'], 'ACTIVITY_DURATION': {'poster': 0, 'talk': 45, 'tutorial': 120}, 'ACTIVITY_LEVELS': ('Beginner', 'Intermediate', 'Advanced'), 'ACTIVITY_ROOMS': {1: '5-6-7-8', 2: '9-10', 3: '13+14', 4: '31', 5: '35', 6: '32'}, 'ACTIVITY_SHOW_DESCRIPTION': False, 'ACTIVITY_TYPES': ('keynote', 'panel', 'plenary', 'tutorial', 'talk', 'poster', 'startup', 'stand', 'summit', 'open-space', 'social', 'break', 'lightning talk'), 'ANY_OF': <class 'gluon.validators.ANY_OF'>, 'ASSIGNJS': <function ASSIGNJS>, 'ATTENDEE_TYPES': (('gratis', <lazyT 'Gratuito, $0'>),), ...}, layer='/home/angel/web2py/applications/FINAL/controllers/articulo.py')"
p90
sS'func'
p91
S'restricted'
p92
sa(dp93
g68
S'/home/angel/web2py/applications/FINAL/controllers/articulo.py'
p94
sg70
(dp95
sg76
I237
sg77
(dp96
I226
S'    factura_impresa = {'
p97
sI227
S"         'nro_fact': nro_fact,"
p98
sI228
S"         'cod_cli': fact.cod_cli,"
p99
sI229
S"         'nombre_cliente': cli.nombre,"
p100
sI230
S"         'domicilio_cliente': cli.domicilio,"
p101
sI231
S"         'total': fact.total,"
p102
sI232
S"         'datos_ventas': datos_venta"
p103
sI233
S'         }'
p104
sI234
S'    return factura_impresa'
p105
sI235
S'####################################'
p106
ssg89
S'()'
p107
sg91
S'<module>'
p108
sa(dp109
g68
S'/home/angel/web2py/gluon/globals.py'
p110
sg70
(dp111
S'self'
p112
S'undefined'
p113
sS'f'
S'<function buy>'
p114
ssg76
I417
sg77
(dp115
I416
S'        self._vars = None'
p116
sI417
S'        self._caller = lambda f: f()'
p117
sI418
S'        self._view_environment = None'
p118
sI419
S'        self._custom_commit = None'
p119
sI420
S'        self._custom_rollback = None'
p120
sI421
S"        self.generic_patterns = ['*']"
p121
sI412
S"        self.flash = ''            # used by the default view layout"
p122
sI413
S'        self.meta = Storage()      # used by web2py_ajax.html'
p123
sI414
S'        self.menu = []             # used by the default view layout'
p124
sI415
S'        self.files = []            # used by web2py_ajax.html'
p125
ssg89
S'(f=<function buy>)'
p126
sg91
S'<lambda>'
p127
sa(dp128
g68
S'/home/angel/web2py/applications/FINAL/controllers/articulo.py'
p129
sg70
(dp130
S'form.vars'
p131
S"<Storage {'shipping_city': 'las torres', 'cvv': ...s franceses 2345', 'shipping_zip_code': '11111'}>"
p132
sS'form.vars.cvv'
p133
S"'123'"
p134
sS'form'
p135
S'<gluon.sqlhtml.SQLFORM object>'
p136
sS'builtinTrue'
p137
S'True'
p138
sS'testmode'
p139
g113
sS'invoice'
p140
S"'f50a4bb0-8ae5-4bef-bc85-f546132dce48'"
p141
sS'total'
p142
S'1200.0'
p143
ssg76
I70
sg77
(dp144
I65
S"               Field('shipping_zip_code',label=T('CODIGO POSTAL DE ENVIO'),"
p145
sI66
S"               requires=IS_MATCH('\\d{5}(\\-\\d{4})?')))"
p146
sI67
S''
sI68
S'    if form.accepts(request,session):'
p147
sI69
S'        if process(form.vars.creditcard,form.vars.expiration,'
p148
sI70
S'                   total,form.vars.cvv,0.0,invoice,testmode=True):'
p149
sI71
S'            for key, value in session.cart.items():'
p150
sI72
S'                db.sale.insert(invoice=invoice,'
p151
sI73
S'                               buyer=auth.user.id,'
p152
sI74
S'                               product = key,'
p153
ssg89
S'()'
p154
sg91
S'buy'
p155
sa(dp156
g68
S'/home/angel/web2py/gluon/contrib/AuthorizeNet.py'
p157
sg70
(dp158
S'payment.process'
p159
S'<bound method AIM.process of <gluon.contrib.AuthorizeNet.AIM instance>>'
p160
sS'payment'
p161
S'<gluon.contrib.AuthorizeNet.AIM instance>'
p162
ssg76
I210
sg77
(dp163
I205
S"            login='cnpdev4289', transkey='SR2P8g4jdEn7vFLQ', testmode=True):"
p164
sI206
S'    payment = AIM(login, transkey, testmode)'
p165
sI207
S"    expiration = expiration.replace('/', '')"
p166
sI208
S'    payment.setTransaction(creditcard, expiration, total, cvv, tax, invoice)'
p167
sI209
S'    try:'
p168
sI210
S'        payment.process()'
p169
sI211
S'        return payment.isApproved()'
p170
sI212
S'    except AIM.AIMError:'
p171
sI213
S'        return False'
p172
sI214
S''
ssg89
S"(creditcard='4427802641004797', expiration='122012', total=1200.0, cvv='123', tax=0.0, invoice='f50a4bb0-8ae5-4bef-bc85-f546132dce48', login='cnpdev4289', transkey='SR2P8g4jdEn7vFLQ', testmode=True)"
p173
sg91
S'process'
p174
sa(dp175
g68
S'/home/angel/web2py/gluon/contrib/AuthorizeNet.py'
p176
sg70
(dp177
S'url'
p178
S"'https://test.authorize.net/gateway/transact.dll'"
p179
sS'self.delimiter'
p180
S"'|'"
p181
sS'encoded_args'
p182
S"'x_login=cnpdev4289&x_tax=0.0&x_method=CC&x_type=...bb0-8ae5-4bef-bc85-f546132dce48&x_delim_data=true'"
p183
sS'self'
p184
S'<gluon.contrib.AuthorizeNet.AIM instance>'
p185
sS').read'
p186
g113
ssg76
I126
sg77
(dp187
I128
S'            opener = urllib.FancyURLopener(self.proxy)'
p188
sI129
S'            opened = opener.open(url, encoded_args)'
p189
sI130
S'            try:'
p190
sI121
S'        else:'
p191
sI122
S"            url = 'https://secure.authorize.net/gateway/transact.dll'"
p192
sI123
S''
sI124
S'        if self.proxy is None:'
p193
sI125
S'            self.results += str(urllib.urlopen('
p194
sI126
S'                url, encoded_args).read()).split(self.delimiter)'
p195
sI127
S'        else:'
p196
ssg89
S'(self=<gluon.contrib.AuthorizeNet.AIM instance>)'
p197
sg91
g174
sa(dp198
g68
S'/usr/lib/python2.7/urllib.py'
p199
sg70
(dp200
S'url'
p201
S"'https://test.authorize.net/gateway/transact.dll'"
p202
sS'opener'
p203
S'<gluon.contrib.autolinks.VimeoURLOpener instance>'
p204
sS'data'
p205
S"'x_login=cnpdev4289&x_tax=0.0&x_method=CC&x_type=...bb0-8ae5-4bef-bc85-f546132dce48&x_delim_data=true'"
p206
sS'opener.open'
p207
S'<bound method VimeoURLOpener.open of <gluon.contrib.autolinks.VimeoURLOpener instance>>'
p208
ssg76
I89
sg77
(dp209
I84
S'    else:'
p210
sI85
S'        opener = _urlopener'
p211
sI86
S'    if data is None:'
p212
sI87
S'        return opener.open(url)'
p213
sI88
S'    else:'
p214
sI89
S'        return opener.open(url, data)'
p215
sI90
S'def urlretrieve(url, filename=None, reporthook=None, data=None):'
p216
sI91
S'    global _urlopener'
p217
sI92
S'    if not _urlopener:'
p218
sI93
S'        _urlopener = FancyURLopener()'
p219
ssg89
S"(url='https://test.authorize.net/gateway/transact.dll', data='x_login=cnpdev4289&x_tax=0.0&x_method=CC&x_type=...bb0-8ae5-4bef-bc85-f546132dce48&x_delim_data=true', proxies=None)"
p220
sg91
S'urlopen'
p221
sa(dp222
g68
S'/usr/lib/python2.7/urllib.py'
p223
sg70
(dp224
S'url'
p225
S"'//test.authorize.net/gateway/transact.dll'"
p226
sS'data'
p227
S"'x_login=cnpdev4289&x_tax=0.0&x_method=CC&x_type=...bb0-8ae5-4bef-bc85-f546132dce48&x_delim_data=true'"
p228
sS'self'
p229
S'<gluon.contrib.autolinks.VimeoURLOpener instance>'
p230
sS'builtingetattr'
p231
S'<built-in function getattr>'
p232
sS'name'
p233
S"'open_https'"
p234
ssg76
I210
sg77
(dp235
I205
S'                return self.open_unknown(fullurl, data)'
p236
sI206
S'        try:'
p237
sI207
S'            if data is None:'
p238
sI208
S'                return getattr(self, name)(url)'
p239
sI209
S'            else:'
p240
sI210
S'                return getattr(self, name)(url, data)'
p241
sI211
S'        except socket.error, msg:'
p242
sI212
S"            raise IOError, ('socket error', msg), sys.exc_info()[2]"
p243
sI213
S''
sI214
S'    def open_unknown(self, fullurl, data=None):'
p244
ssg89
S"(self=<gluon.contrib.autolinks.VimeoURLOpener instance>, fullurl='https://test.authorize.net/gateway/transact.dll', data='x_login=cnpdev4289&x_tax=0.0&x_method=CC&x_type=...bb0-8ae5-4bef-bc85-f546132dce48&x_delim_data=true')"
p245
sg91
S'open'
p246
sa(dp247
g68
S'/usr/lib/python2.7/urllib.py'
p248
sg70
(dp249
S'h'
S'<httplib.HTTPS instance>'
p250
sS'data'
p251
S"'x_login=cnpdev4289&x_tax=0.0&x_method=CC&x_type=...bb0-8ae5-4bef-bc85-f546132dce48&x_delim_data=true'"
p252
sS'h.endheaders'
p253
S'<bound method HTTPSConnection.endheaders of <httplib.HTTPSConnection instance>>'
p254
ssg76
I437
sg77
(dp255
I432
S"                h.putrequest('GET', selector)"
p256
sI433
S"            if proxy_auth: h.putheader('Proxy-Authorization', 'Basic %s' % proxy_auth)"
p257
sI434
S"            if auth: h.putheader('Authorization', 'Basic %s' % auth)"
p258
sI435
S"            if realhost: h.putheader('Host', realhost)"
p259
sI436
S'            for args in self.addheaders: h.putheader(*args)'
p260
sI437
S'            h.endheaders(data)'
p261
sI438
S'            errcode, errmsg, headers = h.getreply()'
p262
sI439
S'            fp = h.getfile()'
p263
sI440
S'            if errcode == -1:'
p264
sI441
S'                if fp: fp.close()'
p265
ssg89
S"(self=<gluon.contrib.autolinks.VimeoURLOpener instance>, url='//test.authorize.net/gateway/transact.dll', data='x_login=cnpdev4289&x_tax=0.0&x_method=CC&x_type=...bb0-8ae5-4bef-bc85-f546132dce48&x_delim_data=true')"
p266
sg91
S'open_https'
p267
sa(dp268
g68
S'/usr/lib/python2.7/httplib.py'
p269
sg70
(dp270
S'message_body'
p271
S"'x_login=cnpdev4289&x_tax=0.0&x_method=CC&x_type=...bb0-8ae5-4bef-bc85-f546132dce48&x_delim_data=true'"
p272
sS'self'
p273
S'<httplib.HTTPSConnection instance>'
p274
sS'self._send_output'
p275
S'<bound method HTTPSConnection._send_output of <httplib.HTTPSConnection instance>>'
p276
ssg76
I1013
sg77
(dp277
I1008
S'        """'
p278
sI1009
S'        if self.__state == _CS_REQ_STARTED:'
p279
sI1010
S'            self.__state = _CS_REQ_SENT'
p280
sI1011
S'        else:'
p281
sI1012
S'            raise CannotSendHeader()'
p282
sI1013
S'        self._send_output(message_body)'
p283
sI1014
S''
sI1015
S'    def request(self, method, url, body=None, headers={}):'
p284
sI1016
S'        """Send a complete request to the server."""'
p285
sI1017
S'        self._send_request(method, url, body, headers)'
p286
ssg89
S"(self=<httplib.HTTPSConnection instance>, message_body='x_login=cnpdev4289&x_tax=0.0&x_method=CC&x_type=...bb0-8ae5-4bef-bc85-f546132dce48&x_delim_data=true')"
p287
sg91
S'endheaders'
p288
sa(dp289
g68
S'/usr/lib/python2.7/httplib.py'
p290
sg70
(dp291
S'msg'
p292
S"'POST /gateway/transact.dll HTTP/1.0\\r\\nContent-Typ...bb0-8ae5-4bef-bc85-f546132dce48&x_delim_data=true'"
p293
sS'self'
p294
S'<httplib.HTTPSConnection instance>'
p295
sS'self.send'
p296
S'<bound method HTTPSConnection.send of <httplib.HTTPSConnection instance>>'
p297
ssg76
I864
sg77
(dp298
I864
S'        self.send(msg)'
p299
sI865
S'        if message_body is not None:'
p300
sI866
S'            #message_body was not a string (i.e. it is a file) and'
p301
sI867
S'            #we must run the risk of Nagle'
p302
sI868
S'            self.send(message_body)'
p303
sI859
S'        # it will avoid performance problems caused by the interaction'
p304
sI860
S'        # between delayed ack and the Nagle algorithm.'
p305
sI861
S'        if isinstance(message_body, str):'
p306
sI862
S'            msg += message_body'
p307
sI863
S'            message_body = None'
p308
ssg89
S'(self=<httplib.HTTPSConnection instance>, message_body=None)'
p309
sg91
S'_send_output'
p310
sa(dp311
g68
S'/usr/lib/python2.7/httplib.py'
p312
sg70
(dp313
S'self'
p314
S'<httplib.HTTPSConnection instance>'
p315
sS'self.connect'
p316
S'<bound method HTTPSConnection.connect of <httplib.HTTPSConnection instance>>'
p317
ssg76
I826
sg77
(dp318
I821
S''
sI822
S'    def send(self, data):'
p319
sI823
S'        """Send `data\' to the server."""'
p320
sI824
S'        if self.sock is None:'
p321
sI825
S'            if self.auto_open:'
p322
sI826
S'                self.connect()'
p323
sI827
S'            else:'
p324
sI828
S'                raise NotConnected()'
p325
sI829
S''
sI830
S'        if self.debuglevel > 0:'
p326
ssg89
S"(self=<httplib.HTTPSConnection instance>, data='POST /gateway/transact.dll HTTP/1.0\\r\\nContent-Typ...bb0-8ae5-4bef-bc85-f546132dce48&x_delim_data=true')"
p327
sg91
S'send'
p328
sa(dp329
g68
S'/usr/lib/python2.7/httplib.py'
p330
sg70
(dp331
S'self.timeout'
p332
S'<object object>'
p333
sS'self'
p334
S'<httplib.HTTPSConnection instance>'
p335
sS'self.source_address'
p336
S'None'
p337
ssg76
I1216
sg77
(dp338
I1216
S'                                            self.timeout, self.source_address)'
p339
sI1217
S'            if self._tunnel_host:'
p340
sI1218
S'                self.sock = sock'
p341
sI1219
S'                self._tunnel()'
p342
sI1220
S'            self.sock = ssl.wrap_socket(sock, self.key_file, self.cert_file)'
p343
sI1211
S''
sI1212
S'        def connect(self):'
p344
sI1213
S'            "Connect to a host on a given (SSL) port."'
p345
sI1214
S''
sI1215
S'            sock = socket.create_connection((self.host, self.port),'
p346
ssg89
S'(self=<httplib.HTTPSConnection instance>)'
p347
sg91
S'connect'
p348
sa(dp349
g68
S'/usr/lib/python2.7/socket.py'
p350
sg70
(dp351
S'global SOCK_STREAM'
p352
S'1'
sS'res'
p353
g113
sS'host'
p354
S"'test.authorize.net'"
p355
sS'port'
p356
S'443'
p357
sS'global getaddrinfo'
p358
S'<built-in function getaddrinfo>'
p359
ssg76
I553
sg77
(dp360
I548
S"    An host of '' or port 0 tells the OS to use the default."
p361
sI549
S'    """'
p362
sI550
S''
sI551
S'    host, port = address'
p363
sI552
S'    err = None'
p364
sI553
S'    for res in getaddrinfo(host, port, 0, SOCK_STREAM):'
p365
sI554
S'        af, socktype, proto, canonname, sa = res'
p366
sI555
S'        sock = None'
p367
sI556
S'        try:'
p368
sI557
S'            sock = socket(af, socktype, proto)'
p369
ssg89
S"(address=('test.authorize.net', 443), timeout=<object object>, source_address=None)"
p370
sg91
S'create_connection'
p371
sasS'pyver'
p372
S'Python 2.7.6: /usr/bin/python (prefix: /usr)'
p373
sS'session'
p374
g63
(S's\xac\x0f\x00\x00<div><table><tr><td style="font-weight:bold;vertical-align:top;">auth</td><td style="vertical-align:top;">:</td><td><div><table><tr><td style="font-weight:bold;vertical-align:top;">expiration</td><td style="vertical-align:top;">:</td><td><div>3600</div></td></tr><tr><td style="font-weight:bold;vertical-align:top;">hmac_key</td><td style="vertical-align:top;">:</td><td><div>0afa6229-a68b-439e-b327-d98a60c6322f</div></td></tr><tr><td style="font-weight:bold;vertical-align:top;">last_visit</td><td style="vertical-align:top;">:</td><td><div>datetime.datetime(2017, 3, 1, 0, 10, 19, 210116)</div></td></tr><tr><td style="font-weight:bold;vertical-align:top;">remember_me</td><td style="vertical-align:top;">:</td><td><div>False</div></td></tr><tr><td style="font-weight:bold;vertical-align:top;">user</td><td style="vertical-align:top;">:</td><td><div><table><tr><td style="font-weight:bold;vertical-align:top;">CUIT_CLIENTES</td><td style="vertical-align:top;">:</td><td><div>32121212</div></td></tr><tr><td style="font-weight:bold;vertical-align:top;">TIPO_EMPRESA</td><td style="vertical-align:top;">:</td><td><div>PRODUCCION</div></td></tr><tr><td style="font-weight:bold;vertical-align:top;">cod_cli</td><td style="vertical-align:top;">:</td><td><div>123</div></td></tr><tr><td style="font-weight:bold;vertical-align:top;">dni</td><td style="vertical-align:top;">:</td><td><div>25174743</div></td></tr><tr><td style="font-weight:bold;vertical-align:top;">email</td><td style="vertical-align:top;">:</td><td><div>alfil_272000@hotmail.com</div></td></tr><tr><td style="font-weight:bold;vertical-align:top;">fecha_alta</td><td style="vertical-align:top;">:</td><td><div>datetime.date(2015, 1, 14)</div></td></tr><tr><td style="font-weight:bold;vertical-align:top;">fecha_nacimiento</td><td style="vertical-align:top;">:</td><td><div>datetime.date(2015, 1, 14)</div></td></tr><tr><td style="font-weight:bold;vertical-align:top;">first_name</td><td style="vertical-align:top;">:</td><td><div>ANGLE</div></td></tr><tr><td style="font-weight:bold;vertical-align:top;">id</td><td style="vertical-align:top;">:</td><td><div>12L</div></td></tr><tr><td style="font-weight:bold;vertical-align:top;">last_name</td><td style="vertical-align:top;">:</td><td><div>SEGOVIA</div></td></tr><tr><td style="font-weight:bold;vertical-align:top;">registration_id</td><td style="vertical-align:top;">:</td><td><div></div></td></tr><tr><td style="font-weight:bold;vertical-align:top;">registration_key</td><td style="vertical-align:top;">:</td><td><div></div></td></tr><tr><td style="font-weight:bold;vertical-align:top;">reset_password_key</td><td style="vertical-align:top;">:</td><td><div></div></td></tr><tr><td style="font-weight:bold;vertical-align:top;">telefono</td><td style="vertical-align:top;">:</td><td><div>1234567</div></td></tr><tr><td style="font-weight:bold;vertical-align:top;">tipo_client_responsable</td><td style="vertical-align:top;">:</td><td><div>MONOTRIBUTISTA</div></td></tr></table></div></td></tr><tr><td style="font-weight:bold;vertical-align:top;">user_groups</td><td style="vertical-align:top;">:</td><td><div><table><tr><td style="font-weight:bold;vertical-align:top;">3</td><td style="vertical-align:top;">:</td><td><div>Cliente</div></td></tr></table></div></td></tr></table></div></td></tr><tr><td style="font-weight:bold;vertical-align:top;">cart</td><td style="vertical-align:top;">:</td><td><div><table><tr><td style="font-weight:bold;vertical-align:top;">3</td><td style="vertical-align:top;">:</td><td><div>1</div></td></tr></table></div></td></tr><tr><td style="font-weight:bold;vertical-align:top;">flash</td><td style="vertical-align:top;">:</td><td><div>None</div></td></tr><tr><td style="font-weight:bold;vertical-align:top;">last_orderby</td><td style="vertical-align:top;">:</td><td><div>None</div></td></tr><tr><td style="font-weight:bold;vertical-align:top;">last_query</td><td style="vertical-align:top;">:</td><td><div>db.auth_membership.user_id==12</div></td></tr></table></div>'
tRp375
sS'etype'
p376
S"<type 'exceptions.IOError'>"
p377
sS'date'
p378
S'Wed Mar  1 00:14:41 2017'
p379
sS'response'
p380
g63
(S's\xa34\x00\x00<div><table><tr><td style="font-weight:bold;vertical-align:top;">body</td><td style="vertical-align:top;">:</td><td><div>&lt;cStringIO.StringO object at 0xacb19840&gt;</div></td></tr><tr><td style="font-weight:bold;vertical-align:top;">cookies</td><td style="vertical-align:top;">:</td><td><div><table><tr><td style="font-weight:bold;vertical-align:top;">session_id_final</td><td style="vertical-align:top;">:</td><td><div>127.0.0.1-5f5d6c2d-0005-41e7-81a2-19c4bfdee258<table><tr><td style="font-weight:bold;vertical-align:top;">comment</td><td style="vertical-align:top;">:</td><td><div></div></td></tr><tr><td style="font-weight:bold;vertical-align:top;">domain</td><td style="vertical-align:top;">:</td><td><div></div></td></tr><tr><td style="font-weight:bold;vertical-align:top;">expires</td><td style="vertical-align:top;">:</td><td><div></div></td></tr><tr><td style="font-weight:bold;vertical-align:top;">httponly</td><td style="vertical-align:top;">:</td><td><div></div></td></tr><tr><td style="font-weight:bold;vertical-align:top;">max-age</td><td style="vertical-align:top;">:</td><td><div></div></td></tr><tr><td style="font-weight:bold;vertical-align:top;">path</td><td style="vertical-align:top;">:</td><td><div>/</div></td></tr><tr><td style="font-weight:bold;vertical-align:top;">secure</td><td style="vertical-align:top;">:</td><td><div></div></td></tr><tr><td style="font-weight:bold;vertical-align:top;">version</td><td style="vertical-align:top;">:</td><td><div></div></td></tr></table></div></td></tr></table></div></td></tr><tr><td style="font-weight:bold;vertical-align:top;">delimiters</td><td style="vertical-align:top;">:</td><td><div><table><tr><td><div>{{</div></td></tr><tr><td><div>}}</div></td></tr></table></div></td></tr><tr><td style="font-weight:bold;vertical-align:top;">description</td><td style="vertical-align:top;">:</td><td><div>Powered by web2py</div></td></tr><tr><td style="font-weight:bold;vertical-align:top;">files</td><td style="vertical-align:top;">:</td><td><div><table></table></div></td></tr><tr><td style="font-weight:bold;vertical-align:top;">flash</td><td style="vertical-align:top;">:</td><td><div></div></td></tr><tr><td style="font-weight:bold;vertical-align:top;">footer</td><td style="vertical-align:top;">:</td><td><div>Conference description&lt;b&gt;dates&lt;/b&gt; city (organized by &lt;a href="#"&gt;users group&lt;/a&gt;). &lt;br/&gt;\nMore info: &lt;a href="#"&gt;blog&lt;/a&gt;&amp;nbsp; Contact: &lt;a href="#"&gt;mail address&lt;/a&gt;</div></td></tr><tr><td style="font-weight:bold;vertical-align:top;">form_label_separator</td><td style="vertical-align:top;">:</td><td><div>: </div></td></tr><tr><td style="font-weight:bold;vertical-align:top;">formstyle</td><td style="vertical-align:top;">:</td><td><div>table3cols</div></td></tr><tr><td style="font-weight:bold;vertical-align:top;">generic_patterns</td><td style="vertical-align:top;">:</td><td><div><table><tr><td><div>*</div></td></tr></table></div></td></tr><tr><td style="font-weight:bold;vertical-align:top;">google_analytics_id</td><td style="vertical-align:top;">:</td><td><div>None</div></td></tr><tr><td style="font-weight:bold;vertical-align:top;">headers</td><td style="vertical-align:top;">:</td><td><div><table><tr><td style="font-weight:bold;vertical-align:top;">X-Powered-By</td><td style="vertical-align:top;">:</td><td><div>web2py</div></td></tr></table></div></td></tr><tr><td style="font-weight:bold;vertical-align:top;">keywords</td><td style="vertical-align:top;">:</td><td><div>python, free software</div></td></tr><tr><td style="font-weight:bold;vertical-align:top;">menu</td><td style="vertical-align:top;">:</td><td><div><table><tr><td><div><table><tr><td><div>Home</div></td></tr><tr><td><div>False</div></td></tr><tr><td><div>/FINAL/default/index</div></td></tr><tr><td><div><table></table></div></td></tr></table></div></td></tr><tr><td><div><table><tr><td><div><span style="color:yellow">web2py</span></div></td></tr><tr><td><div>False</div></td></tr><tr><td><div>None</div></td></tr><tr><td><div><table><tr><td><div><table><tr><td><div>My Sites</div></td></tr><tr><td><div>False</div></td></tr><tr><td><div>/admin/default/site</div></td></tr></table></div></td></tr><tr><td><div><table><tr><td><div>This App</div></td></tr><tr><td><div>False</div></td></tr><tr><td><div>/admin/default/design/FINAL</div></td></tr><tr><td><div>[(&lt;lazyT &#x27;Controller&#x27;&gt;, False, &#x27;/admin/default/edit/FINAL/controllers/articulo.py&#x27;), (&lt;lazyT &#x27;View&#x27;&gt;, False, &#x27;/admin/default/edit/FINAL/views/articulo/buy.html&#x27;), (&lt;lazyT &#x27;Layout&#x27;&gt;, False, &#x27;/admin/default/edit/FINAL/views/layout.html&#x27;), (&lt;lazyT &#x27;Stylesheet&#x27;&gt;, False, &#x27;/admin/default/edit/FINAL/static/css/web2py.css&#x27;), (&lt;lazyT &#x27;DB Model&#x27;&gt;, False, &#x27;/admin/default/edit/FINAL/models/db.py&#x27;), (&lt;lazyT &#x27;Menu Model&#x27;&gt;, False, &#x27;/admin/default/edit/FINAL/models/menu.py&#x27;), (&lt;lazyT &#x27;Database&#x27;&gt;, False, &#x27;/FINAL/appadmin/index&#x27;), (&lt;lazyT &#x27;Errors&#x27;&gt;, False, &#x27;/admin/default/errors/FINAL&#x27;), (&lt;lazyT &#x27;About&#x27;&gt;, False, &#x27;/admin/default/about/FINAL&#x27;)]</div></td></tr></table></div></td></tr><tr><td><div><table><tr><td><div>web2py.com</div></td></tr><tr><td><div>False</div></td></tr><tr><td><div>http://www.web2py.com</div></td></tr><tr><td><div>[(&lt;lazyT &#x27;Download&#x27;&gt;, False, &#x27;http://www.web2py.com/examples/default/download&#x27;), (&lt;lazyT &#x27;Support&#x27;&gt;, False, &#x27;http://www.web2py.com/examples/default/support&#x27;), (&lt;lazyT &#x27;Demo&#x27;&gt;, False, &#x27;http://web2py.com/demo_admin&#x27;), (&lt;lazyT &#x27;Quick Examples&#x27;&gt;, False, &#x27;http://web2py.com/examples/default/examples&#x27;), (&lt;lazyT &#x27;FAQ&#x27;&gt;, False, &#x27;http://web2py.com/AlterEgo&#x27;), (&lt;lazyT &#x27;Videos&#x27;&gt;, False, &#x27;http://www.web2py.com/examples/default/videos/&#x27;), (&lt;lazyT &#x27;Free Applications&#x27;&gt;, False, &#x27;http://web2py.com/appliances&#x27;), (&lt;lazyT &#x27;Plugins&#x27;&gt;, False, &#x27;http://web2py.com/plugins&#x27;), (&lt;lazyT &#x27;Layouts&#x27;&gt;, False, &#x27;http://web2py.com/layouts&#x27;), (&lt;lazyT &#x27;Recipes&#x27;&gt;, False, &#x27;http://web2pyslices.com/&#x27;), (&lt;lazyT &#x27;Semantic&#x27;&gt;, False, &#x27;http://web2py.com/semantic&#x27;)]</div></td></tr></table></div></td></tr><tr><td><div><table><tr><td><div>Documentaci\xc3\xb3n</div></td></tr><tr><td><div>False</div></td></tr><tr><td><div>http://www.web2py.com/book</div></td></tr><tr><td><div>[(&lt;lazyT &#x27;Preface&#x27;&gt;, False, &#x27;http://www.web2py.com/book/default/chapter/00&#x27;), (&lt;lazyT &#x27;Introduction&#x27;&gt;, False, &#x27;http://www.web2py.com/book/default/chapter/01&#x27;), (&lt;lazyT &#x27;Python&#x27;&gt;, False, &#x27;http://www.web2py.com/book/default/chapter/02&#x27;), (&lt;lazyT &#x27;Overview&#x27;&gt;, False, &#x27;http://www.web2py.com/book/default/chapter/03&#x27;), (&lt;lazyT &#x27;The Core&#x27;&gt;, False, &#x27;http://www.web2py.com/book/default/chapter/04&#x27;), (&lt;lazyT &#x27;The Views&#x27;&gt;, False, &#x27;http://www.web2py.com/book/default/chapter/05&#x27;), (&lt;lazyT &#x27;Database&#x27;&gt;, False, &#x27;http://www.web2py.com/book/default/chapter/06&#x27;), (&lt;lazyT &#x27;Forms and Validators&#x27;&gt;, False, &#x27;http://www.web2py.com/book/default/chapter/07&#x27;), (&lt;lazyT &#x27;Email and SMS&#x27;&gt;, False, &#x27;http://www.web2py.com/book/default/chapter/08&#x27;), (&lt;lazyT &#x27;Access Control&#x27;&gt;, False, &#x27;http://www.web2py.com/book/default/chapter/09&#x27;), (&lt;lazyT &#x27;Services&#x27;&gt;, False, &#x27;http://www.web2py.com/book/default/chapter/10&#x27;), (&lt;lazyT &#x27;Ajax Recipes&#x27;&gt;, False, &#x27;http://www.web2py.com/book/default/chapter/11&#x27;), (&lt;lazyT &#x27;Components and Plugins&#x27;&gt;, False, &#x27;http://www.web2py.com/book/default/chapter/12&#x27;), (&lt;lazyT &#x27;Deployment Recipes&#x27;&gt;, False, &#x27;http://www.web2py.com/book/default/chapter/13&#x27;), (&lt;lazyT &#x27;Other Recipes&#x27;&gt;, False, &#x27;http://www.web2py.com/book/default/chapter/14&#x27;), (&lt;lazyT &#x27;Buy this book&#x27;&gt;, False, &#x27;http://stores.lulu.com/web2py&#x27;)]</div></td></tr></table></div></td></tr><tr><td><div><table><tr><td><div>Community</div></td></tr><tr><td><div>False</div></td></tr><tr><td><div>None</div></td></tr><tr><td><div>[(&lt;lazyT &#x27;Groups&#x27;&gt;, False, &#x27;http://www.web2py.com/examples/default/usergroups&#x27;), (&lt;lazyT &#x27;Twitter&#x27;&gt;, False, &#x27;http://twitter.com/web2py&#x27;), (&lt;lazyT &#x27;Live Chat&#x27;&gt;, False, &#x27;http://webchat.freenode.net/?channels=web2py&#x27;)]</div></td></tr></table></div></td></tr><tr><td><div><table><tr><td><div>Plugins</div></td></tr><tr><td><div>False</div></td></tr><tr><td><div>None</div></td></tr><tr><td><div>[(&#x27;plugin_wiki&#x27;, False, &#x27;http://web2py.com/examples/default/download&#x27;), (&lt;lazyT &#x27;Other Plugins&#x27;&gt;, False, &#x27;http://web2py.com/plugins&#x27;), (&lt;lazyT &#x27;Layout Plugins&#x27;&gt;, False, &#x27;http://web2py.com/layouts&#x27;)]</div></td></tr></table></div></td></tr></table></div></td></tr></table></div></td></tr></table></div></td></tr><tr><td style="font-weight:bold;vertical-align:top;">meta</td><td style="vertical-align:top;">:</td><td><div><table><tr><td style="font-weight:bold;vertical-align:top;">author</td><td style="vertical-align:top;">:</td><td><div>Your Name &lt;you@example.com&gt;</div></td></tr><tr><td style="font-weight:bold;vertical-align:top;">copyright</td><td style="vertical-align:top;">:</td><td><div>Copyright 2011</div></td></tr><tr><td style="font-weight:bold;vertical-align:top;">description</td><td style="vertical-align:top;">:</td><td><div>a cool new app</div></td></tr><tr><td style="font-weight:bold;vertical-align:top;">generator</td><td style="vertical-align:top;">:</td><td><div>Web2py Web Framework</div></td></tr><tr><td style="font-weight:bold;vertical-align:top;">keywords</td><td style="vertical-align:top;">:</td><td><div>web2py, python, framework</div></td></tr></table></div></td></tr><tr><td style="font-weight:bold;vertical-align:top;">models_to_run</td><td style="vertical-align:top;">:</td><td><div><table><tr><td><div>^\\w+\\.py$</div></td></tr><tr><td><div>^articulo/\\w+\\.py$</div></td></tr><tr><td><div>^articulo/buy/\\w+\\.py$</div></td></tr></table></div></td></tr><tr><td style="font-weight:bold;vertical-align:top;">postprocessing</td><td style="vertical-align:top;">:</td><td><div><table></table></div></td></tr><tr><td style="font-weight:bold;vertical-align:top;">session_client</td><td style="vertical-align:top;">:</td><td><div>127.0.0.1</div></td></tr><tr><td style="font-weight:bold;vertical-align:top;">session_cookie_compression_level</td><td style="vertical-align:top;">:</td><td><div>None</div></td></tr><tr><td style="font-weight:bold;vertical-align:top;">session_cookie_expires</td><td style="vertical-align:top;">:</td><td><div>None</div></td></tr><tr><td style="font-weight:bold;vertical-align:top;">session_data_name</td><td style="vertical-align:top;">:</td><td><div>session_data_final</div></td></tr><tr><td style="font-weight:bold;vertical-align:top;">session_file</td><td style="vertical-align:top;">:</td><td><div>&lt;open file &#x27;/home/angel/web2py/applications/FINAL/sessions/077/0b8/127.0.0.1-5f5d6c2d-0005-41e7-81a2-19c4bfdee258&#x27;, mode &#x27;rb+&#x27; at 0xac11a808&gt;</div></td></tr><tr><td style="font-weight:bold;vertical-align:top;">session_filename</td><td style="vertical-align:top;">:</td><td><div>/home/angel/web2py/applications/FINAL/sessions/127.0.0.1-5f5d6c2d-0005-41e7-81a2-19c4bfdee258</div></td></tr><tr><td style="font-weight:bold;vertical-align:top;">session_hash</td><td style="vertical-align:top;">:</td><td><div>78bf7c27315eeefecc4f84d696f45ce3</div></td></tr><tr><td style="font-weight:bold;vertical-align:top;">session_id</td><td style="vertical-align:top;">:</td><td><div>127.0.0.1-5f5d6c2d-0005-41e7-81a2-19c4bfdee258</div></td></tr><tr><td style="font-weight:bold;vertical-align:top;">session_id_name</td><td style="vertical-align:top;">:</td><td><div>session_id_final</div></td></tr><tr><td style="font-weight:bold;vertical-align:top;">session_locked</td><td style="vertical-align:top;">:</td><td><div>True</div></td></tr><tr><td style="font-weight:bold;vertical-align:top;">session_masterapp</td><td style="vertical-align:top;">:</td><td><div>FINAL</div></td></tr><tr><td style="font-weight:bold;vertical-align:top;">session_new</td><td style="vertical-align:top;">:</td><td><div>False</div></td></tr><tr><td style="font-weight:bold;vertical-align:top;">session_storage_type</td><td style="vertical-align:top;">:</td><td><div>file</div></td></tr><tr><td style="font-weight:bold;vertical-align:top;">status</td><td style="vertical-align:top;">:</td><td><div>200</div></td></tr><tr><td style="font-weight:bold;vertical-align:top;">subtitle</td><td style="vertical-align:top;">:</td><td><div>Adaptame!</div></td></tr><tr><td style="font-weight:bold;vertical-align:top;">title</td><td style="vertical-align:top;">:</td><td><div>Final</div></td></tr><tr><td style="font-weight:bold;vertical-align:top;">view</td><td style="vertical-align:top;">:</td><td><div>articulo/buy.html</div></td></tr></table></div>'
tRp381
sS'locals'
p382
(dp383
S'err'
p384
S'None'
p385
sS'host'
p386
S"'test.authorize.net'"
p387
sS'timeout'
p388
S'<object object>'
p389
sS'address'
p390
S"('test.authorize.net', 443)"
p391
sS'source_address'
p392
S'None'
p393
sS'port'
p394
S'443'
p395
sssS'traceback'
p396
S'Traceback (most recent call last):\n  File "/home/angel/web2py/gluon/restricted.py", line 227, in restricted\n    exec ccode in environment\n  File "/home/angel/web2py/applications/FINAL/controllers/articulo.py", line 237, in <module>\n  File "/home/angel/web2py/gluon/globals.py", line 417, in <lambda>\n    self._caller = lambda f: f()\n  File "/home/angel/web2py/applications/FINAL/controllers/articulo.py", line 70, in buy\n    total,form.vars.cvv,0.0,invoice,testmode=True):\n  File "/home/angel/web2py/gluon/contrib/AuthorizeNet.py", line 210, in process\n    payment.process()\n  File "/home/angel/web2py/gluon/contrib/AuthorizeNet.py", line 126, in process\n    url, encoded_args).read()).split(self.delimiter)\n  File "/usr/lib/python2.7/urllib.py", line 89, in urlopen\n    return opener.open(url, data)\n  File "/usr/lib/python2.7/urllib.py", line 210, in open\n    return getattr(self, name)(url, data)\n  File "/usr/lib/python2.7/urllib.py", line 437, in open_https\n    h.endheaders(data)\n  File "/usr/lib/python2.7/httplib.py", line 1013, in endheaders\n    self._send_output(message_body)\n  File "/usr/lib/python2.7/httplib.py", line 864, in _send_output\n    self.send(msg)\n  File "/usr/lib/python2.7/httplib.py", line 826, in send\n    self.connect()\n  File "/usr/lib/python2.7/httplib.py", line 1216, in connect\n    self.timeout, self.source_address)\n  File "/usr/lib/python2.7/socket.py", line 553, in create_connection\n    for res in getaddrinfo(host, port, 0, SOCK_STREAM):\nIOError: [Errno socket error] [Errno -2] Name or service not known\n'
p397
s.