(dp1
S'output'
p2
S"<class 'cPickle.UnpicklingError'> pickle data was truncated"
p3
sS'layer'
p4
S'C:\\Users\\angel\\Desktop\\sql\\web2py\\applications\\FINAL\\models\\db.py'
p5
sS'code'
p6
S'# -*- coding: utf-8 -*- \n\n\n\n#########################################################################\n## This scaffolding model makes your app work on Google App Engine too\n#########################################################################\n\nif request.env.web2py_runtime_gae:            # if running on Google App Engine\n    db = DAL(\'gae\')                           # connect to Google BigTable\n    session.connect(request, response, db = db) # and store sessions and tickets there\n    ### or use the following lines to store sessions in Memcache\n    # from gluon.contrib.memdb import MEMDB\n    # from google.appengine.api.memcache import Client\n    # session.connect(request, response, db = MEMDB(Client()))\nelse:                                         # else use a normal relational database\n    db = DAL(\'sqlite://storage.sqlite\')       # if not, use SQLite or other DB\n## if no need for session\n# session.forget()\n\n#########################################################################\n## Here is sample code if you need for \n## - email capabilities\n## - authentication (registration, login, logout, ... )\n## - authorization (role based authorization)\n## - services (xml, csv, json, xmlrpc, jsonrpc, amf, rss)\n## - crud actions\n## (more options discussed in gluon/tools.py)\n#########################################################################\n\nfrom gluon.tools import *\nmail = Mail()                                  # mailer\nauth = Auth(globals(),db)                      # authentication/authorization\ncrud = Crud(globals(),db)                      # for CRUD helpers using auth\nservice = Service(globals())                   # for json, xml, jsonrpc, xmlrpc, amfrpc\nplugins = PluginManager()\n\n###########################################################################################################\n# TABLA "auth_user" --> es la tabla de usuarios\n\ndb.define_table(\n    auth.settings.table_user_name,\n    Field(\'first_name\', length=128, default=\'\',label=T(\'Nombre\')),\n    Field(\'last_name\', length=128, default=\'\',label=T(\'Apellido\')),\n    Field(\'email\', length=128, default=\'\', unique=True,label=T(\'E-Mail\')),\n    Field(\'password\', \'password\', length=512,readable=False, label=\'Contrase\xc3\xb1a\'),\n    Field("dni",label=T(\'DNI\')),\n    Field(\'cod_cli\',\'string\',required=True,label=T(\'CODIGO DE CLIENTES\')),\n    Field(\'fecha_alta\', \'date\', default=request.now.date,\n          readable=True, writable=False),\n    Field(\'CUIT_CLIENTES\',"string", length=13,required=True,label=T(\'N\xc2\xb0 CUIT DEL CLIENTES\')),\n    Field(\'tipo_client_responsable\',\'string\',\n    requires=IS_IN_SET([ \'IVA\', \'EXENTO\',\'NORESPONSABLE\',\'MONOTRIBUTISTA\']),required=True,label=T(\'TIPO DE RESP.INSC\')),\n    Field(\'TIPO_EMPRESA\',requires=IS_IN_SET([ \'PRODUCCION\', \'COMERCIAL\',\'SERVICIOS\'])),\n    Field("fecha_nacimiento", \'date\',label=T(\'Fecha de nac.\')),\n    Field("localidad",label=T(\'Localidad\')),\n    Field("calle",label=T(\'Calle\')),\n    Field("nro_calle", \'integer\',label=T(\'Nro de calle\')),\n    Field("entrecalle1",label=T(\'Entrecalle 1\')),\n    Field("entrecalle2",label=T(\'Entrecalle 2\')),\n    Field("telefono",label=T(\'Telefono\')),\n    Field(\'registration_key\', length=512,\n          writable=False, readable=False, default=\'\',label=T(\'Clave de registracion\')),\n    Field(\'reset_password_key\', length=512,\n          writable=False, readable=False, default=\'\',label=T(\'Clave de contrase\xc3\xb1a de restablecimiento\')),\n    Field(\'registration_id\', length=512,\n          writable=False, readable=False, default=\'\',label=T(\'ID de registracion\'))\n          )\n          \n# VALIDADORES "localidad"\nusuario = db[auth.settings.table_user_name] # Con esto se abrevia todo en "usuario"\n\nusuario.first_name.requires=IS_NOT_EMPTY(error_message=\'Falta ingresar nombre\')\n\nusuario.last_name.requires=IS_NOT_EMPTY(error_message=\'Falta ingresar apellido\')\n\n\n#usuario.password.requires = [IS_STRONG(min=4, special=2, upper=20), CRYPT()]\nusuario.password.requires=IS_NOT_EMPTY(error_message=\'Falta ingresar contrase\xc3\xb1a\')\n\nusuario.email.requires = [\n  IS_EMAIL(error_message=auth.messages.invalid_email),\n  IS_NOT_IN_DB(db, usuario.email)]\n  \nusuario.dni.lenght=8\nusuario.dni.requires=IS_NOT_IN_DB(db, \'auth_user.dni\')  \nusuario.dni.requires=IS_INT_IN_RANGE(10000000, 100000001, error_message=(\'Falta ingresar el DNI o lo ingreso mal\'))\n  \nusuario.fecha_nacimiento.requires=IS_NOT_EMPTY(error_message=\'Falta ingresar fecha de nacimiento\')  \n  \nusuario.localidad.requires=IS_IN_DB(db,\'localidad.nombre_localidad\')\n\nusuario.calle.requires=IS_IN_DB(db,\'calle.nombre_calle\')\n\nusuario.nro_calle.requires=IS_NOT_EMPTY(error_message=\'El nro de calle no puede estar vacio\')\nusuario.nro_calle.requires=IS_INT_IN_RANGE(1, 100001)\n\nusuario.entrecalle1.requires=IS_IN_DB(db,\'calle.nombre_calle\')\n#usuario.entrecalle1.requires=IS_NOT_EMPTY(error_message=\'Falta ingresar entrecalle\')\n\nusuario.entrecalle2.requires=IS_IN_DB(db,\'calle.nombre_calle\')\n#usuario.entrecalle2.requires=IS_NOT_EMPTY(error_message=\'Falta ingresar entrecalle\')\n\n###########################################################################################################\n\nmail.settings.server = \'logging\' or \'smtp.gmail.com:587\'  # your SMTP server\nmail.settings.sender = \'user@gmail.com\'         # your email\nmail.settings.login = \'username:password\'      # your credentials or None\n\nauth.settings.hmac_key = \'sha512:270d9ae1-e317-4100-bfd8-c7bd255e3a9c\'   # before define_tables()\nauth.define_tables()                           # creates all needed tables\nauth.settings.mailer = mail                    # for user email verification\nauth.settings.registration_requires_verification = False\nauth.settings.registration_requires_approval = False\nauth.settings.reset_password_requires_verification = True\n\n\n\nauth.settings.create_user_groups = False\n\n##################################################\n# Esto asigna membrecia de CLIENTE a todos los que se registren\n\ndef dar_permiso(form):\n    auth.add_membership(3, auth.user_id) \n\nauth.settings.register_onaccept = dar_permiso\n\n##################################################\n\n\n#########################################################################\n# MENSAJES\n#########################################################################\n\nauth.messages.submit_button = \'Aceptar\' \nauth.messages.verify_password = \'Reingrese su contrase\xc3\xb1a\' \nauth.messages.delete_label = \'De verificaci\xc3\xb3n para eliminar:\' \nauth.messages.function_disabled = \'Funci\xc3\xb3n desactivada\' \nauth.messages.access_denied = \'Privilegios insuficientes\' \nauth.messages.registration_verifying = \'El registro necesita ser verificado\' \nauth.messages.registration_pending = \'El registro todavia no fue aprobado\' \nauth.messages.login_disabled = \'Login desactivado por el administrador\' \nauth.messages.logged_in = \'Logueado\' \nauth.messages.email_sent = \'E-mail enviado\' \nauth.messages.unable_to_send_email = \'No se puede enviar el e-mail\' \nauth.messages.email_verified = \'E-mail verificado\' \nauth.messages.logged_out = \'Deslogueado\'\nauth.messages.registration_successful = \'Registracion satisfactoria\' \nauth.messages.invalid_email = \'E-mail invalido\' \nauth.messages.unable_send_email = \'No se puede enviar e-mail\' \nauth.messages.invalid_login = \'Login invalido\' \nauth.messages.invalid_user = \'Usuario invalido\' \nauth.messages.invalid_password = \'Contrase\xc3\xb1a invalida\' \nauth.messages.is_empty = "No puede estar vacio" \nauth.messages.mismatched_password = "Los campos de contrase\xc3\xb1a no coinciden" \nauth.messages.verify_email = \'Haga clic en el enlace http://\'+request.env.http_host+URL(r=request,c=\'default\',f=\'user\',args=[\'verify_email\'])+\'/%(key)s para verificar su e-mail\' \nauth.messages.verify_email_subject = \'E-mail de verificacion\' \nauth.messages.username_sent = \'Su nombre de usuario fue enviado por e-mail\' \nauth.messages.new_password_sent = \'Una nueva contrase\xc3\xb1a fue enviada por e-mail\' \nauth.messages.password_changed = \'Contrase\xc3\xb1a cambiada\' \nauth.messages.retrieve_username = \'Su nombre de usuario es: %(username)s\' \nauth.messages.retrieve_username_subject = \'Recuperar nombre de usuario\' \nauth.messages.retrieve_password = \'Su contrase\xc3\xb1a es: %(password)s\' \nauth.messages.retrieve_password_subject = \'Recuperar contrase\xc3\xb1a\' \nauth.messages.reset_password = \'Haga clic en el enlace http://\'+request.env.http_host+URL(r=request,c=\'default\',f=\'user\',args=[\'reset_password\'])+\'/%(key)s para restablecer la contrase\xc3\xb1a\'\nauth.messages.reset_password_subject = \'Restablecer contrase\xc3\xb1a\' \nauth.messages.invalid_reset_password = \'Contrase\xc3\xb1a de restablecimiento invalida\' \nauth.messages.profile_updated = \'Perfil actualizado\' \nauth.messages.new_password = \'Nueva contrase\xc3\xb1a\' \nauth.messages.old_password = \'Contrase\xc3\xb1a anterior\' \nauth.messages.group_description = \'Grupo asignado al usuario %(id)s\' \nauth.messages.register_log = \'Usuario %(id)s registrado\' \nauth.messages.login_log = \'Usuario %(id)s logueado\' \nauth.messages.logout_log = \'Usuario %(id)s Deslogueado\' \nauth.messages.profile_log = \'Perfil del usuario %(id)s actualizado\' \nauth.messages.verify_email_log = \'E-mail de verificacion enviado al usuario %(id)s\' \nauth.messages.retrieve_username_log = \'Nombre de usuario de %(id)s recuperado\' \nauth.messages.retrieve_password_log = \'Contrase\xc3\xb1a de %(id)s recuperada\' \nauth.messages.reset_password_log = \'Contrase\xc3\xb1a de %(id)s restablecida\' \nauth.messages.change_password_log = \'Contrase\xc3\xb1a de %(id)s modificada\' \nauth.messages.add_group_log = \'Grupo %(group_id)s creado\' \nauth.messages.del_group_log = \'Grupo %(group_id)s eliminado\' \nauth.messages.add_membership_log = None \nauth.messages.del_membership_log = None \nauth.messages.has_membership_log = None \nauth.messages.add_permission_log = None \nauth.messages.del_permission_log = None \nauth.messages.has_permission_log = None \nauth.messages.label_first_name = \'Nombre\' \nauth.messages.label_last_name = \'Apellido\' \nauth.messages.label_username = \'Nombre de usuario\' \nauth.messages.label_email = \'E-mail\' \nauth.messages.label_password = \'Contrase\xc3\xb1a\'\nauth.messages.label_registration_key = \'Clave de registracion\' \nauth.messages.label_reset_password_key = \'Clave de restablecimiento de contrase\xc3\xb1a\' \nauth.messages.label_registration_id = \'ID del registro\' \nauth.messages.label_role = \'Rol\' \nauth.messages.label_description = \'Descripcion\' \nauth.messages.label_user_id = \'ID del usuario\' \nauth.messages.label_group_id = \'ID del grupo\' \nauth.messages.label_name = \'Nombre\' \nauth.messages.label_table_name = \'Nombre de la tabla\' \nauth.messages.label_record_id = \'ID de registro\' \nauth.messages.label_time_stamp = \'Marca de tiempo\' \nauth.messages.label_client_ip = \'IP del cliente\' \nauth.messages.label_origin = \'Origen\' \nauth.messages.label_remember_me = "Recordarme (por 30 dias)" \n\n#########################################################################\n\ncrud.settings.auth = None                      # =auth to enforce authorization on crud\n\n#########################################################################\n## Define your tables below (or better in another model file) for example\n##\n## >>> db.define_table(\'mytable\',Field(\'myfield\',\'string\'))\n##\n## Fields can be \'string\',\'text\',\'password\',\'integer\',\'double\',\'boolean\'\n##       \'date\',\'time\',\'datetime\',\'blob\',\'upload\', \'reference TABLENAME\'\n## There is an implicit \'id integer autoincrement\' field\n## Consult manual for more options, validators, etc.\n##\n## More API examples for controllers:\n##\n## >>> db.mytable.insert(myfield=\'value\')\n## >>> rows=db(db.mytable.myfield==\'value\').select(db.mytable.ALL)\n## >>> for row in rows: print row.id, row.myfield\n#########################################################################\n\n# ACA COMIENZA EL PROYECTO REMIZER\n\n###########################################################################################################\n\n# TABLA "localidad"\ndb.define_table("localidad",\n    Field("nombre_localidad",label=T(\'Localidad\')),\n    )\n\n# VALIDADORES "localidad"\ndb.localidad.nombre_localidad.requires=IS_NOT_EMPTY(error_message=\'La localidad no puede estar vacia\')\n\n###########################################################################################################\n\n# TABLA "calle"\ndb.define_table("calle",\n    Field("nombre_calle",label=T(\'Calle\')),\n    Field("nombre_localidad",\'text\',db.localidad,label=T(\'Localidad\')),\n    )\n    \n# VALIDADORES "calle"\ndb.calle.nombre_calle.requires=IS_NOT_EMPTY(error_message=\'La calle no puede estar vacia\')\ndb.calle.nombre_localidad.requires=IS_IN_DB(db,\'localidad.nombre_localidad\')\n####################################################\n####################################################\ndb.define_table(\'ciudades\',\n   Field("ciudad",\n       requires=IS_IN_SET([\n             \'Moron\',\n             \'Merlo\',\n             \'Gonzales_Catan\'\n             \'Pontevedra\'])),\n\n\n    )\n#db.ciudades.Moron.requires=IS_IN_DB(db,db.LOCALIDAD_moron.id,\'%(calles_de_moron)s\')    \n#db.ciudades.Merlo.requires=IS_IN_DB(db,db.MERLO.id,\'%(CALLES_MERLO)s\')  \n#db.ciudades.Gonzales_Catan.requires=IS_IN_DB(db,db.CATAN.id,\'%(CALLES_G_CAT)s\')  \n#db.ciudades.Pontevedra.requires=IS_IN_DB(db,db.PONTEVEDRA.id,\'%(CALLES_PONTEVEDRA)s\')  \n    ###########################################################################\ndb.define_table(\'Paises\',\n   Field("Pais_id","id"),\n   Field("cod_pais","integer"),\n   Field("Pais"),\n   Field("capital"), )   \n###############################################\n############################\n\ndb.define_table("chofer",\n    Field("nombre",required=True),\n    Field("apellido",required=True),\n    Field(\'foto\', \'upload\'),\n    Field("dni",unique=True),\n    Field("fecha_nacimiento",\'date\'),\n    Field("direccion"),\n    Field("ciudad",db.Paises),\n    Field("provincia"),\n    Field("pais"),\n    Field("telefono"),\n    Field("mail"),\n    Field("categoria","string", writable=False, readable=False),\n    Field("nro_licencia","string"),\n    Field("vencimiento", \'date\'),\n    Field("fecha_alta","datetime", writable=False, readable=False, \n    default=request.now),\n    )\n\n\n################################################################################\ndb.define_table("transporte",\n    Field("transporte_id","id"), \n    Field("nro_patente"),\n    Field("nro_motor"),\n    Field("title"),\n    Field("marca"),\n    Field("modelo"),\n    Field("tipo"),\n    Field("fecha_compra","date"),\n    Field("costo_compra"),\n    Field("lugar_compra"),\n    Field("seguro_compania"),\n    Field("seguro_monto"),\n    Field("seguro_vencimiento","date"),\n    Field("cant_ejes"),\n    Field("color"),\n    Field("capacidad_carga"),\n    Field("verificacion_tecnica",\'date\'),\n    Field("odometro_adquisicion"),\n    Field("foto","upload"),\n    Field("asigna_chofer",db.chofer,requires=IS_IN_DB(db,db.chofer,\'%(nombre)s-%(apellido)s-%(nro_licencia)s\')),\n    Field("estado_transporte",default=\'Disponible\',label=\'Estado del transporte\',\n        requires=IS_IN_SET((\'Disponible\',\'en viaje\',\'Fuera de servicio\'))),\n    \n    format=\'%(title)s\')\n\n\n\n##############################\ndb.define_table("Planta_origen",\n          Field(\'cod_planta_orig\',\'integer\',required=True,label=T(\'CODIGO DE PLANTA\')),\n          Field(\'Nombre_planta_orig\',\'string\',required=True,label=T(\'NOMBRE\')),\n          Field(\'Direccion_planta_orig\',\'string\',required=True,label=T(\'DIRECCION\')),\n)\n################################\ndb.define_table("Planta_destino",\n          Field(\'cod_planta_dest\',\'integer\',required=True,label=T(\'CODIGO DE PLANTA\')),\n          Field(\'Nombre_planta_dest\',\'integer\',required=True,label=T(\'NOMBRE\')),\n          Field(\'Direccion_planta_dest\',\'string\',required=True,label=T(\'DIRECCION\')),\n) \n#######################\n\n###############################################\ndb.define_table("deposito",\n          Field("cod_deposito","integer"),\n          Field(\'tipos_organizacion_dep\',\'string\',requires=IS_IN_SET([ \'LAMINADOS\', \'BARRAS TREFILADOS\',\'METAL DESPLEGABLE-ALUMINIO\',\'PERFILES ESTRUCTURALES\'])),\n          Field("fecha_deposito","date"),)\n     \n     \n\n######################################################e\n\n\n\n\n######################################\n\n\n###############################\n\n\ndb.define_table(\'articulo\',\n   Field(\'articulo_id\',\'id\'),\n   Field(\'imagen\', \'upload\'),\n   Field(\'nombre\',\'string\'),\n   Field(\'tipos_organizacion\',\'string\',requires=IS_IN_SET([ \'LAMINADOS\', \'BARRAS TREFILADOS\',\'METAL DESPLEGABLE-ALUMINIO\',\'PERFILES ESTRUCTURALES\'])),\n   Field("fecha","datetime", writable=False, readable=True, default=request.now),\n   Field(\'codigo_Articulo\',\'integer\',required=True,label=T(\'CODIGO DE ARTICULOS\')),\n   Field(\'Detalle_Articulo\', \'text\'),\n   Field(\'espesor\',\'integer\'),Field(\'ancho\',"integer"),Field(\'diametro\',\'integer\'),Field(\'unidades\',\'string\',requires=IS_IN_SET([ \'gramos\', \'kilogramos\',\'unidades\',\'botellas\',\'cajas\'])),     \n   Field(\'precio_Compra_Articulo\',\'double\',required=True,label=T(\'PRECIO DE COMPRA\')),\n   Field(\'precio_Venta_Articulo\',\'double\',required=True,label=T(\'PRECIO DE VENTA\')), \n   Field(\'cantidad\',\'integer\',required=True,label=T(\'CANTIDA\')),\n   Field("deposito",default=\'DEPOSITO 01\',label=\'DEPOSITO RECEPCION\'),\n   Field("fecha_de_recepcion", \'datetime\',default=request.now,label=\'FECHA DE RECEPCION DEL ARTICULO\'),\n   Field("lote",default=\'LOTE A-1\',label=\'LOTE DE ALMACENAMIENTO\',\n        requires=IS_IN_SET((\'LOTE A-1\',\'LOTE A-2\',\'LOTE A-3\'))),\n\n   Field(\'fecha_Baja_Articulo\',\'date\',writable=False,readable=False),\n   Field(\'sortable\',\'integer\'),\n   auth.signature,\n   format=\'%(nombre)s\')\n\n\ndb.define_table(\'factura\',\n    Field(\'nro_fact\', \'id\'),\n    Field(\'fecha\', \'date\', default=request.now.date()),\n    Field(\'cod_cli\', db.auth_user),\n    Field(\'total\', \'double\'),)\n\n# and one table to store sales of products to users\ndb.define_table(\'sale\',\n   Field(\'invoice\'),\n   Field(\'creditcard\',label=T(\'TARJETA DE CREDITO\')),\n   Field(\'buyer\',db.auth_user,default=auth.user_id,label=T(\'NOMBRE DE CLIETE\'),\n        requires = IS_IN_DB(db, db.auth_user.id, "(%(id)s) %(first_name)s %(last_name)s")),\n\n   Field(\'product\',db.articulo,requires=IS_IN_DB(db,db.articulo,\'%(nombre)s\'),\n    label=T(\'NOMBRE DEL ARTICULO\')),\n   Field(\'quantity\',\'integer\',label=T(\'CANTIDAD\')),\n   Field(\'price\',\'double\',label=T(\'PRECIO\')),\n   Field("fecha_de_pedido", \'datetime\',default=request.now,label=\'FECHA/HORA DEL PEDIDO  DEL ARTICULO\'),\n   Field("catalogar_pedido",default=\'Aplazable\',label=\'CATALOGAR PEDIDO\',\n        requires=IS_IN_SET((\'Aplazable\',\'URGENTE\'))),\n   Field("fecha_de_preparado", \'datetime\',default=request.now,label=\'FECHA/HORA DEL PREPARADO DEL PEDIDO\'),\n   Field("fecha_del_envio", \'datetime\',default=request.now,label=\'FECHA/HORA DE ENVIO DEL PEDIDO\'),\n   Field("fecha_de_entrega", \'datetime\',default=request.now,label=\'FECHA/HORA DE ENTREGA DEL PEDIDO\'),\n   Field(\'shipped\',\'boolean\',default=False,label=T(\'ENVIO\')),\n   Field("estado_pedido",default=\'Pendiente\',label=\'ESTADO DEL PEDIDO\',\n        requires=IS_IN_SET((\'En curso\',\'Realizado\',\'Pendiente\'))),\n   Field(\'shipping_address\',label=T(\'DIRECCIO DE ENVIO\')),\n   Field(\'shipping_city\',label=T(\'NOMBRE DE LA CIUDAD\')),\n   Field(\'shipping_state\',label=T(\'LOCALIDAD\')),\n   Field(\'shipping_zip_code\',label=T(\'CODIGO POSTAL DE ENVIO\')),\n   Field(\'shipping_date\',\'datetime\',label=T(\'FECHA DE ENVIO\')),\n   Field(\'delivery_date\',\'datetime\',label=T(\'FECHA DE ENTREGA\')),\n   Field(\'tracking_number\',label=T(\'NUMERO DE SEGUIMIENTO\')),\n   Field("puerta_partida",default=\'PUERTA P-1\',label=\'PUERTA DE PARTIDA\',\n        requires=IS_IN_SET((\'PUERTA P-1\',\'PUERTA P-2\',\'PUERTA P-3\'))),\n   Field(\'asignar_transporte\',db.transporte,label=T(\'DATOS DEL TRASPORTE \'),\n      requires=IS_IN_DB(db,db.transporte.id,\'%(id)s-%(tipo)s-%(nro_patente)s-%(asigna_chofer)s\')),   \n   Field(\'asignar_chofer\',db.chofer,label=T(\'DATOS DEL CHOFER\'),\n      requires=IS_IN_DB(db,db.chofer.id,\'%(id)s-%(nombre)s-%(apellido)s-%(dni)s\')), \n   auth.signature),\n\n# we also make a session cart, just in case\nsession.cart = session.cart or {}\n#######################################\ndb.define_table(\'Factuas_venta\',\n    Field(\'nro_fact\', db.factura),\n    Field(\'cant\', \'integer\'),\n    Field(\'cod_art\', db.articulo),\n    Field(\'importe\', \'double\'),\n)\n#################################\n\ndb.define_table(\'factura_item\', \n    Field(\'invoice_id\', db.factura), \n    Field(\'product_id\', db.articulo), \n    Field(\'quantity\', \'double\'), \n    Field(\'price\', \'double\'), \n    Field(\'sub_total\', \'double\'), \n)\ndb.define_table(\'Remito\',\n    Field(\'numero_remito\',\'id\'), \n    Field(\'cliente_id\', db.sale,\n        requires = IS_IN_DB(db, db.sale, "%(buyer)s" )),\n    Field(\'cliente_domicilio\', db.auth_user,\n        requires = IS_IN_DB(db, db.auth_user.id, "%(localidad)s -%(calle)s - %(nro_calle)s -(%(id)s)" )),    \n    Field("localidad_id_destino", db.sale,\n        requires = IS_IN_DB(db, db.sale.id, "%(shipping_address)s - (%(id)s)" )),\n    Field(\'detalle\', db.sale,\n        requires = IS_IN_DB(db, db.sale.id, "%(product)s - (%(id)s)" )),   \n    Field(\'cantidad\', \'double\'), \n    Field(\'fecha_de_entrega\', \'double\'),\n    Field(\'forma_de_entrega\', db.sale,\n        requires = IS_IN_DB(db, db.sale.id, "%(asignar_transporte)s - (%(id)s)" )),) \n##########################################################################\n  \n\n######################################\ndb.define_table(\'stock\',\n    Field(\'cod_art\', db.articulo,requires=IS_IN_DB(db,db.articulo.articulo_id,\'%(codigo_Articulo)s\')),\n    Field(\'cant\', \'integer\'), # + para ingresos, - para egresos\n    Field(\'fecha\', \'datetime\', default=request.now),\n    )\n\n#############################################\ndb.chofer.pais.requires=IS_IN_DB(db,db.Paises.id,\'%(cod_pais)s)-%(Pais)s)-%(capital)s\')\ndb.chofer.nombre.requires=IS_NOT_EMPTY(error_message=\'coloque el nombre\')    \ndb.chofer.apellido.requires=IS_NOT_EMPTY(error_message=\'coloque el apellido\')\ndb.chofer.dni.requires=IS_NOT_EMPTY(error_message=\'debe colocar n\xc2\xba de dni\'), IS_NOT_IN_DB(db, db.chofer.dni)\ndb.chofer.direccion.requires=IS_NOT_EMPTY(error_message=\'coloque la direccion\')\ndb.chofer.ciudad.requires=IS_NOT_EMPTY(error_message=\'coloque la ciudad\')\ndb.chofer.direccion.requires=IS_NOT_EMPTY(error_message=\'coloque la direccion\')\ndb.chofer.categoria.requires = IS_IN_SET([\'chofer\', \'peon de carga\', \'empleado mantenimiento\'])\n\ndb.transporte.asigna_chofer.requires = IS_IN_DB(db, db.chofer.id,"%(id)s-%(nombre)s-%(apellido)s-%(dni)s" )\ndb.transporte.title.requires = IS_NOT_IN_DB(db, db.transporte.title)\n'
p7
sS'snapshot'
p8
(dp9
S'exception'
p10
(dp11
S'__module__'
p12
S"'cPickle'"
p13
sS'__getslice__'
p14
S"<method-wrapper '__getslice__' of UnpicklingError object>"
p15
sS'__str__'
p16
S"<bound method UnpicklingError.__str__ of UnpicklingError('pickle data was truncated',)>"
p17
sS'__reduce__'
p18
S'<built-in method __reduce__ of UnpicklingError object>'
p19
sS'__dict__'
p20
S'{}'
p21
sS'__sizeof__'
p22
S'<built-in method __sizeof__ of UnpicklingError object>'
p23
sS'__weakref__'
p24
S'None'
p25
sS'__init__'
p26
S"<method-wrapper '__init__' of UnpicklingError object>"
p27
sS'__setattr__'
p28
S"<method-wrapper '__setattr__' of UnpicklingError object>"
p29
sS'__reduce_ex__'
p30
S'<built-in method __reduce_ex__ of UnpicklingError object>'
p31
sS'__new__'
p32
S'<built-in method __new__ of type object>'
p33
sS'__format__'
p34
S'<built-in method __format__ of UnpicklingError object>'
p35
sS'__class__'
p36
S"<class 'cPickle.UnpicklingError'>"
p37
sS'__doc__'
p38
S'None'
p39
sS'__getitem__'
p40
S"<method-wrapper '__getitem__' of UnpicklingError object>"
p41
sS'__setstate__'
p42
S'<built-in method __setstate__ of UnpicklingError object>'
p43
sS'__getattribute__'
p44
S"<method-wrapper '__getattribute__' of UnpicklingError object>"
p45
sS'args'
p46
S"('pickle data was truncated',)"
p47
sS'__subclasshook__'
p48
S'<built-in method __subclasshook__ of type object>'
p49
sS'__unicode__'
p50
S'<built-in method __unicode__ of UnpicklingError object>'
p51
sS'__delattr__'
p52
S"<method-wrapper '__delattr__' of UnpicklingError object>"
p53
sS'__repr__'
p54
S"<method-wrapper '__repr__' of UnpicklingError object>"
p55
sS'__hash__'
p56
S"<method-wrapper '__hash__' of UnpicklingError object>"
p57
ssS'evalue'
p58
S'pickle data was truncated'
p59
sS'request'
p60
cgluon.html
XML_unpickle
p61
(S'sBV\x00\x00<div><table><tr><td style="font-weight:bold;vertical-align:top;">ajax</td><td style="vertical-align:top;">:</td><td><div>False</div></td></tr><tr><td style="font-weight:bold;vertical-align:top;">application</td><td style="vertical-align:top;">:</td><td><div>FINAL</div></td></tr><tr><td style="font-weight:bold;vertical-align:top;">args</td><td style="vertical-align:top;">:</td><td><div><table></table></div></td></tr><tr><td style="font-weight:bold;vertical-align:top;">cid</td><td style="vertical-align:top;">:</td><td><div>None</div></td></tr><tr><td style="font-weight:bold;vertical-align:top;">client</td><td style="vertical-align:top;">:</td><td><div>127.0.0.1</div></td></tr><tr><td style="font-weight:bold;vertical-align:top;">controller</td><td style="vertical-align:top;">:</td><td><div>Generar_guia_de_carga</div></td></tr><tr><td style="font-weight:bold;vertical-align:top;">cookies</td><td style="vertical-align:top;">:</td><td><div><table><tr><td style="font-weight:bold;vertical-align:top;">session_id_admin</td><td style="vertical-align:top;">:</td><td><div>127.0.0.1-ca1b5ebc-0b99-4196-8cfc-049dcafc533a<table><tr><td style="font-weight:bold;vertical-align:top;">comment</td><td style="vertical-align:top;">:</td><td><div></div></td></tr><tr><td style="font-weight:bold;vertical-align:top;">domain</td><td style="vertical-align:top;">:</td><td><div></div></td></tr><tr><td style="font-weight:bold;vertical-align:top;">expires</td><td style="vertical-align:top;">:</td><td><div></div></td></tr><tr><td style="font-weight:bold;vertical-align:top;">httponly</td><td style="vertical-align:top;">:</td><td><div></div></td></tr><tr><td style="font-weight:bold;vertical-align:top;">max-age</td><td style="vertical-align:top;">:</td><td><div></div></td></tr><tr><td style="font-weight:bold;vertical-align:top;">path</td><td style="vertical-align:top;">:</td><td><div></div></td></tr><tr><td style="font-weight:bold;vertical-align:top;">secure</td><td style="vertical-align:top;">:</td><td><div></div></td></tr><tr><td style="font-weight:bold;vertical-align:top;">version</td><td style="vertical-align:top;">:</td><td><div></div></td></tr></table></div></td></tr><tr><td style="font-weight:bold;vertical-align:top;">session_id_welcome</td><td style="vertical-align:top;">:</td><td><div>127.0.0.1-22a46c52-044a-495b-9bd0-8b5414999fea<table><tr><td style="font-weight:bold;vertical-align:top;">comment</td><td style="vertical-align:top;">:</td><td><div></div></td></tr><tr><td style="font-weight:bold;vertical-align:top;">domain</td><td style="vertical-align:top;">:</td><td><div></div></td></tr><tr><td style="font-weight:bold;vertical-align:top;">expires</td><td style="vertical-align:top;">:</td><td><div></div></td></tr><tr><td style="font-weight:bold;vertical-align:top;">httponly</td><td style="vertical-align:top;">:</td><td><div></div></td></tr><tr><td style="font-weight:bold;vertical-align:top;">max-age</td><td style="vertical-align:top;">:</td><td><div></div></td></tr><tr><td style="font-weight:bold;vertical-align:top;">path</td><td style="vertical-align:top;">:</td><td><div></div></td></tr><tr><td style="font-weight:bold;vertical-align:top;">secure</td><td style="vertical-align:top;">:</td><td><div></div></td></tr><tr><td style="font-weight:bold;vertical-align:top;">version</td><td style="vertical-align:top;">:</td><td><div></div></td></tr></table></div></td></tr></table></div></td></tr><tr><td style="font-weight:bold;vertical-align:top;">env</td><td style="vertical-align:top;">:</td><td><div><table><tr><td style="font-weight:bold;vertical-align:top;">HTTP_ACCEPT</td><td style="vertical-align:top;">:</td><td><div>text/html,application/xhtml+xml,application/xml;q=0.9,image/webp,*/*;q=0.8</div></td></tr><tr><td style="font-weight:bold;vertical-align:top;">HTTP_ACCEPT_ENCODING</td><td style="vertical-align:top;">:</td><td><div>gzip,deflate,sdch</div></td></tr><tr><td style="font-weight:bold;vertical-align:top;">HTTP_ACCEPT_LANGUAGE</td><td style="vertical-align:top;">:</td><td><div>es-ES,es;q=0.8</div></td></tr><tr><td style="font-weight:bold;vertical-align:top;">HTTP_CONNECTION</td><td style="vertical-align:top;">:</td><td><div>keep-alive</div></td></tr><tr><td style="font-weight:bold;vertical-align:top;">HTTP_COOKIE</td><td style="vertical-align:top;">:</td><td><div>session_id_welcome=127.0.0.1-22a46c52-044a-495b-9bd0-8b5414999fea; session_id_admin=127.0.0.1-ca1b5ebc-0b99-4196-8cfc-049dcafc533a</div></td></tr><tr><td style="font-weight:bold;vertical-align:top;">HTTP_HOST</td><td style="vertical-align:top;">:</td><td><div>127.0.0.1:8000</div></td></tr><tr><td style="font-weight:bold;vertical-align:top;">HTTP_REFERER</td><td style="vertical-align:top;">:</td><td><div>http://127.0.0.1:8000/admin/default/design/FINAL</div></td></tr><tr><td style="font-weight:bold;vertical-align:top;">HTTP_USER_AGENT</td><td style="vertical-align:top;">:</td><td><div>Mozilla/5.0 (Windows NT 6.1) AppleWebKit/537.36 (KHTML, like Gecko) Chrome/32.0.1700.107 Safari/537.36</div></td></tr><tr><td style="font-weight:bold;vertical-align:top;">PATH_INFO</td><td style="vertical-align:top;">:</td><td><div>/FINAL/Generar_guia_de_carga/index</div></td></tr><tr><td style="font-weight:bold;vertical-align:top;">QUERY_STRING</td><td style="vertical-align:top;">:</td><td><div></div></td></tr><tr><td style="font-weight:bold;vertical-align:top;">REMOTE_ADDR</td><td style="vertical-align:top;">:</td><td><div>127.0.0.1</div></td></tr><tr><td style="font-weight:bold;vertical-align:top;">REMOTE_PORT</td><td style="vertical-align:top;">:</td><td><div>50962</div></td></tr><tr><td style="font-weight:bold;vertical-align:top;">REQUEST_METHOD</td><td style="vertical-align:top;">:</td><td><div>GET</div></td></tr><tr><td style="font-weight:bold;vertical-align:top;">SCRIPT_NAME</td><td style="vertical-align:top;">:</td><td><div></div></td></tr><tr><td style="font-weight:bold;vertical-align:top;">SERVER_NAME</td><td style="vertical-align:top;">:</td><td><div>angel-PC</div></td></tr><tr><td style="font-weight:bold;vertical-align:top;">SERVER_PORT</td><td style="vertical-align:top;">:</td><td><div>8000</div></td></tr><tr><td style="font-weight:bold;vertical-align:top;">SERVER_PROTOCOL</td><td style="vertical-align:top;">:</td><td><div>HTTP/1.1</div></td></tr><tr><td style="font-weight:bold;vertical-align:top;">SERVER_SOFTWARE</td><td style="vertical-align:top;">:</td><td><div>Rocket 1.2.6</div></td></tr><tr><td style="font-weight:bold;vertical-align:top;">app_folders</td><td style="vertical-align:top;">:</td><td><div>set([&#x27;C:\\\\Users\\\\angel\\\\Desktop\\\\sql\\\\web2py\\\\applications\\\\admin\\\\&#x27;, &#x27;C:\\\\Users\\\\angel\\\\Desktop\\\\sql\\\\web2py\\\\applications\\\\welcome\\\\&#x27;, &#x27;C:\\\\Users\\\\angel\\\\Desktop\\\\sql\\\\web2py\\\\applications\\\\FINAL\\\\&#x27;])</div></td></tr><tr><td style="font-weight:bold;vertical-align:top;">applications_parent</td><td style="vertical-align:top;">:</td><td><div>C:\\Users\\angel\\Desktop\\sql\\web2py</div></td></tr><tr><td style="font-weight:bold;vertical-align:top;">cmd_args</td><td style="vertical-align:top;">:</td><td><div><table></table></div></td></tr><tr><td style="font-weight:bold;vertical-align:top;">cmd_options</td><td style="vertical-align:top;">:</td><td><div>&lt;Values at 0x2753da0: {&#x27;verbose&#x27;: False, &#x27;ip&#x27;: &#x27;127.0.0.1&#x27;, &#x27;debuglevel&#x27;: 30, &#x27;with_scheduler&#x27;: False, &#x27;ips&#x27;: [&#x27;fe80::1560:f4ed:1534:ba1e%12&#x27;, &#x27;192.168.1.37&#x27;], &#x27;shutdown_timeout&#x27;: 5, &#x27;taskbar&#x27;: False, &#x27;with_coverage&#x27;: False, &#x27;port&#x27;: 8000, &#x27;maxthreads&#x27;: None, &#x27;softcron&#x27;: False, &#x27;server_name&#x27;: &#x27;angel-PC&#x27;, &#x27;bpython&#x27;: False, &#x27;nogui&#x27;: False, &#x27;pid_filename&#x27;: &#x27;httpserver.pid&#x27;, &#x27;extcron&#x27;: False, &#x27;runcron&#x27;: False, &#x27;run_system_tests&#x27;: False, &#x27;test&#x27;: None, &#x27;folder&#x27;: &#x27;C:\\\\Users\\\\angel\\\\Desktop\\\\sql\\\\web2py&#x27;, &#x27;config&#x27;: &#x27;&#x27;, &#x27;minthreads&#x27;: None, &#x27;shell&#x27;: None, &#x27;run&#x27;: &#x27;&#x27;, &#x27;log_filename&#x27;: &#x27;httpserver.log&#x27;, &#x27;profiler_dir&#x27;: None, &#x27;args&#x27;: [&#x27;&#x27;], &#x27;socket_timeout&#x27;: 5, &#x27;ssl_ca_certificate&#x27;: None, &#x27;scheduler&#x27;: None, &#x27;interfaces&#x27;: None, &#x27;ssl_private_key&#x27;: &#x27;&#x27;, &#x27;scheduler_groups&#x27;: None, &#x27;password&#x27;: &#x27;&lt;ask&gt;&#x27;, &#x27;request_queue_size&#x27;: 5, &#x27;ssl_certificate&#x27;: &#x27;&#x27;, &#x27;cronjob&#x27;: False, &#x27;numthreads&#x27;: None, &#x27;quiet&#x27;: False, &#x27;import_models&#x27;: False, &#x27;timeout&#x27;: 10, &#x27;plain&#x27;: False, &#x27;nobanner&#x27;: False}&gt;</div></td></tr><tr><td style="font-weight:bold;vertical-align:top;">db_sessions</td><td style="vertical-align:top;">:</td><td><div>set([])</div></td></tr><tr><td style="font-weight:bold;vertical-align:top;">debugging</td><td style="vertical-align:top;">:</td><td><div>True</div></td></tr><tr><td style="font-weight:bold;vertical-align:top;">gluon_parent</td><td style="vertical-align:top;">:</td><td><div>C:\\Users\\angel\\Desktop\\sql\\web2py</div></td></tr><tr><td style="font-weight:bold;vertical-align:top;">http_accept</td><td style="vertical-align:top;">:</td><td><div>text/html,application/xhtml+xml,application/xml;q=0.9,image/webp,*/*;q=0.8</div></td></tr><tr><td style="font-weight:bold;vertical-align:top;">http_accept_encoding</td><td style="vertical-align:top;">:</td><td><div>gzip,deflate,sdch</div></td></tr><tr><td style="font-weight:bold;vertical-align:top;">http_accept_language</td><td style="vertical-align:top;">:</td><td><div>es-ES,es;q=0.8</div></td></tr><tr><td style="font-weight:bold;vertical-align:top;">http_connection</td><td style="vertical-align:top;">:</td><td><div>keep-alive</div></td></tr><tr><td style="font-weight:bold;vertical-align:top;">http_cookie</td><td style="vertical-align:top;">:</td><td><div>session_id_welcome=127.0.0.1-22a46c52-044a-495b-9bd0-8b5414999fea; session_id_admin=127.0.0.1-ca1b5ebc-0b99-4196-8cfc-049dcafc533a</div></td></tr><tr><td style="font-weight:bold;vertical-align:top;">http_host</td><td style="vertical-align:top;">:</td><td><div>127.0.0.1:8000</div></td></tr><tr><td style="font-weight:bold;vertical-align:top;">http_referer</td><td style="vertical-align:top;">:</td><td><div>http://127.0.0.1:8000/admin/default/design/FINAL</div></td></tr><tr><td style="font-weight:bold;vertical-align:top;">http_user_agent</td><td style="vertical-align:top;">:</td><td><div>Mozilla/5.0 (Windows NT 6.1) AppleWebKit/537.36 (KHTML, like Gecko) Chrome/32.0.1700.107 Safari/537.36</div></td></tr><tr><td style="font-weight:bold;vertical-align:top;">is_jython</td><td style="vertical-align:top;">:</td><td><div>False</div></td></tr><tr><td style="font-weight:bold;vertical-align:top;">is_pypy</td><td style="vertical-align:top;">:</td><td><div>False</div></td></tr><tr><td style="font-weight:bold;vertical-align:top;">is_source</td><td style="vertical-align:top;">:</td><td><div>False</div></td></tr><tr><td style="font-weight:bold;vertical-align:top;">local_hosts</td><td style="vertical-align:top;">:</td><td><div><table><tr><td><div>192.168.1.37</div></td></tr><tr><td><div>fe80::1560:f4ed:1534:ba1e%12</div></td></tr><tr><td><div>::ffff:127.0.0.1</div></td></tr><tr><td><div>::1</div></td></tr><tr><td><div>127.0.0.1</div></td></tr><tr><td><div>angel-PC</div></td></tr></table></div></td></tr><tr><td style="font-weight:bold;vertical-align:top;">path_info</td><td style="vertical-align:top;">:</td><td><div>/FINAL/Generar_guia_de_carga/index</div></td></tr><tr><td style="font-weight:bold;vertical-align:top;">query_string</td><td style="vertical-align:top;">:</td><td><div></div></td></tr><tr><td style="font-weight:bold;vertical-align:top;">remote_addr</td><td style="vertical-align:top;">:</td><td><div>127.0.0.1</div></td></tr><tr><td style="font-weight:bold;vertical-align:top;">remote_port</td><td style="vertical-align:top;">:</td><td><div>50962</div></td></tr><tr><td style="font-weight:bold;vertical-align:top;">request_method</td><td style="vertical-align:top;">:</td><td><div>GET</div></td></tr><tr><td style="font-weight:bold;vertical-align:top;">request_uri</td><td style="vertical-align:top;">:</td><td><div>/FINAL/Generar_guia_de_carga/index</div></td></tr><tr><td style="font-weight:bold;vertical-align:top;">script_name</td><td style="vertical-align:top;">:</td><td><div></div></td></tr><tr><td style="font-weight:bold;vertical-align:top;">server_name</td><td style="vertical-align:top;">:</td><td><div>angel-PC</div></td></tr><tr><td style="font-weight:bold;vertical-align:top;">server_port</td><td style="vertical-align:top;">:</td><td><div>8000</div></td></tr><tr><td style="font-weight:bold;vertical-align:top;">server_protocol</td><td style="vertical-align:top;">:</td><td><div>HTTP/1.1</div></td></tr><tr><td style="font-weight:bold;vertical-align:top;">server_software</td><td style="vertical-align:top;">:</td><td><div>Rocket 1.2.6</div></td></tr><tr><td style="font-weight:bold;vertical-align:top;">web2py_path</td><td style="vertical-align:top;">:</td><td><div>C:\\Users\\angel\\Desktop\\sql\\web2py</div></td></tr><tr><td style="font-weight:bold;vertical-align:top;">web2py_version</td><td style="vertical-align:top;">:</td><td><div>2.9.5-stable+timestamp.2014.03.20.22.57.13</div></td></tr><tr><td style="font-weight:bold;vertical-align:top;">wsgi.errors</td><td style="vertical-align:top;">:</td><td><div>&lt;open file &#x27;&lt;stderr&gt;&#x27;, mode &#x27;w&#x27; at 0x013160D0&gt;</div></td></tr><tr><td style="font-weight:bold;vertical-align:top;">wsgi.file_wrapper</td><td style="vertical-align:top;">:</td><td><div>&lt;class wsgiref.util.FileWrapper at 0x019ADAB0&gt;</div></td></tr><tr><td style="font-weight:bold;vertical-align:top;">wsgi.input</td><td style="vertical-align:top;">:</td><td><div>&lt;socket._fileobject object at 0x06D44EF0&gt;</div></td></tr><tr><td style="font-weight:bold;vertical-align:top;">wsgi.multiprocess</td><td style="vertical-align:top;">:</td><td><div>False</div></td></tr><tr><td style="font-weight:bold;vertical-align:top;">wsgi.multithread</td><td style="vertical-align:top;">:</td><td><div>True</div></td></tr><tr><td style="font-weight:bold;vertical-align:top;">wsgi.run_once</td><td style="vertical-align:top;">:</td><td><div>False</div></td></tr><tr><td style="font-weight:bold;vertical-align:top;">wsgi.url_scheme</td><td style="vertical-align:top;">:</td><td><div>http</div></td></tr><tr><td style="font-weight:bold;vertical-align:top;">wsgi.version</td><td style="vertical-align:top;">:</td><td><div><table><tr><td><div>1</div></td></tr><tr><td><div>0</div></td></tr></table></div></td></tr><tr><td style="font-weight:bold;vertical-align:top;">wsgi_errors</td><td style="vertical-align:top;">:</td><td><div>&lt;open file &#x27;&lt;stderr&gt;&#x27;, mode &#x27;w&#x27; at 0x013160D0&gt;</div></td></tr><tr><td style="font-weight:bold;vertical-align:top;">wsgi_file_wrapper</td><td style="vertical-align:top;">:</td><td><div>&lt;class wsgiref.util.FileWrapper at 0x019ADAB0&gt;</div></td></tr><tr><td style="font-weight:bold;vertical-align:top;">wsgi_input</td><td style="vertical-align:top;">:</td><td><div>&lt;socket._fileobject object at 0x06D44EF0&gt;</div></td></tr><tr><td style="font-weight:bold;vertical-align:top;">wsgi_multiprocess</td><td style="vertical-align:top;">:</td><td><div>False</div></td></tr><tr><td style="font-weight:bold;vertical-align:top;">wsgi_multithread</td><td style="vertical-align:top;">:</td><td><div>True</div></td></tr><tr><td style="font-weight:bold;vertical-align:top;">wsgi_run_once</td><td style="vertical-align:top;">:</td><td><div>False</div></td></tr><tr><td style="font-weight:bold;vertical-align:top;">wsgi_url_scheme</td><td style="vertical-align:top;">:</td><td><div>http</div></td></tr><tr><td style="font-weight:bold;vertical-align:top;">wsgi_version</td><td style="vertical-align:top;">:</td><td><div><table><tr><td><div>1</div></td></tr><tr><td><div>0</div></td></tr></table></div></td></tr></table></div></td></tr><tr><td style="font-weight:bold;vertical-align:top;">extension</td><td style="vertical-align:top;">:</td><td><div>html</div></td></tr><tr><td style="font-weight:bold;vertical-align:top;">folder</td><td style="vertical-align:top;">:</td><td><div>C:\\Users\\angel\\Desktop\\sql\\web2py\\applications\\FINAL\\</div></td></tr><tr><td style="font-weight:bold;vertical-align:top;">function</td><td style="vertical-align:top;">:</td><td><div>index</div></td></tr><tr><td style="font-weight:bold;vertical-align:top;">global_settings</td><td style="vertical-align:top;">:</td><td><div><table><tr><td style="font-weight:bold;vertical-align:top;">app_folders</td><td style="vertical-align:top;">:</td><td><div>set([&#x27;C:\\\\Users\\\\angel\\\\Desktop\\\\sql\\\\web2py\\\\applications\\\\admin\\\\&#x27;, &#x27;C:\\\\Users\\\\angel\\\\Desktop\\\\sql\\\\web2py\\\\applications\\\\welcome\\\\&#x27;, &#x27;C:\\\\Users\\\\angel\\\\Desktop\\\\sql\\\\web2py\\\\applications\\\\FINAL\\\\&#x27;])</div></td></tr><tr><td style="font-weight:bold;vertical-align:top;">applications_parent</td><td style="vertical-align:top;">:</td><td><div>C:\\Users\\angel\\Desktop\\sql\\web2py</div></td></tr><tr><td style="font-weight:bold;vertical-align:top;">cmd_args</td><td style="vertical-align:top;">:</td><td><div><table></table></div></td></tr><tr><td style="font-weight:bold;vertical-align:top;">cmd_options</td><td style="vertical-align:top;">:</td><td><div>&lt;Values at 0x2753da0: {&#x27;verbose&#x27;: False, &#x27;ip&#x27;: &#x27;127.0.0.1&#x27;, &#x27;debuglevel&#x27;: 30, &#x27;with_scheduler&#x27;: False, &#x27;ips&#x27;: [&#x27;fe80::1560:f4ed:1534:ba1e%12&#x27;, &#x27;192.168.1.37&#x27;], &#x27;shutdown_timeout&#x27;: 5, &#x27;taskbar&#x27;: False, &#x27;with_coverage&#x27;: False, &#x27;port&#x27;: 8000, &#x27;maxthreads&#x27;: None, &#x27;softcron&#x27;: False, &#x27;server_name&#x27;: &#x27;angel-PC&#x27;, &#x27;bpython&#x27;: False, &#x27;nogui&#x27;: False, &#x27;pid_filename&#x27;: &#x27;httpserver.pid&#x27;, &#x27;extcron&#x27;: False, &#x27;runcron&#x27;: False, &#x27;run_system_tests&#x27;: False, &#x27;test&#x27;: None, &#x27;folder&#x27;: &#x27;C:\\\\Users\\\\angel\\\\Desktop\\\\sql\\\\web2py&#x27;, &#x27;config&#x27;: &#x27;&#x27;, &#x27;minthreads&#x27;: None, &#x27;shell&#x27;: None, &#x27;run&#x27;: &#x27;&#x27;, &#x27;log_filename&#x27;: &#x27;httpserver.log&#x27;, &#x27;profiler_dir&#x27;: None, &#x27;args&#x27;: [&#x27;&#x27;], &#x27;socket_timeout&#x27;: 5, &#x27;ssl_ca_certificate&#x27;: None, &#x27;scheduler&#x27;: None, &#x27;interfaces&#x27;: None, &#x27;ssl_private_key&#x27;: &#x27;&#x27;, &#x27;scheduler_groups&#x27;: None, &#x27;password&#x27;: &#x27;&lt;ask&gt;&#x27;, &#x27;request_queue_size&#x27;: 5, &#x27;ssl_certificate&#x27;: &#x27;&#x27;, &#x27;cronjob&#x27;: False, &#x27;numthreads&#x27;: None, &#x27;quiet&#x27;: False, &#x27;import_models&#x27;: False, &#x27;timeout&#x27;: 10, &#x27;plain&#x27;: False, &#x27;nobanner&#x27;: False}&gt;</div></td></tr><tr><td style="font-weight:bold;vertical-align:top;">db_sessions</td><td style="vertical-align:top;">:</td><td><div>set([])</div></td></tr><tr><td style="font-weight:bold;vertical-align:top;">debugging</td><td style="vertical-align:top;">:</td><td><div>True</div></td></tr><tr><td style="font-weight:bold;vertical-align:top;">gluon_parent</td><td style="vertical-align:top;">:</td><td><div>C:\\Users\\angel\\Desktop\\sql\\web2py</div></td></tr><tr><td style="font-weight:bold;vertical-align:top;">is_jython</td><td style="vertical-align:top;">:</td><td><div>False</div></td></tr><tr><td style="font-weight:bold;vertical-align:top;">is_pypy</td><td style="vertical-align:top;">:</td><td><div>False</div></td></tr><tr><td style="font-weight:bold;vertical-align:top;">is_source</td><td style="vertical-align:top;">:</td><td><div>False</div></td></tr><tr><td style="font-weight:bold;vertical-align:top;">local_hosts</td><td style="vertical-align:top;">:</td><td><div><table><tr><td><div>192.168.1.37</div></td></tr><tr><td><div>fe80::1560:f4ed:1534:ba1e%12</div></td></tr><tr><td><div>::ffff:127.0.0.1</div></td></tr><tr><td><div>::1</div></td></tr><tr><td><div>127.0.0.1</div></td></tr><tr><td><div>angel-PC</div></td></tr></table></div></td></tr><tr><td style="font-weight:bold;vertical-align:top;">web2py_version</td><td style="vertical-align:top;">:</td><td><div>2.9.5-stable+timestamp.2014.03.20.22.57.13</div></td></tr></table></div></td></tr><tr><td style="font-weight:bold;vertical-align:top;">is_https</td><td style="vertical-align:top;">:</td><td><div>False</div></td></tr><tr><td style="font-weight:bold;vertical-align:top;">is_local</td><td style="vertical-align:top;">:</td><td><div>True</div></td></tr><tr><td style="font-weight:bold;vertical-align:top;">is_restful</td><td style="vertical-align:top;">:</td><td><div>False</div></td></tr><tr><td style="font-weight:bold;vertical-align:top;">now</td><td style="vertical-align:top;">:</td><td><div>datetime.datetime(2015, 1, 15, 0, 29, 2, 244000)</div></td></tr><tr><td style="font-weight:bold;vertical-align:top;">raw_args</td><td style="vertical-align:top;">:</td><td><div></div></td></tr><tr><td style="font-weight:bold;vertical-align:top;">raw_extension</td><td style="vertical-align:top;">:</td><td><div>None</div></td></tr><tr><td style="font-weight:bold;vertical-align:top;">url</td><td style="vertical-align:top;">:</td><td><div>/FINAL/Generar_guia_de_carga/index</div></td></tr><tr><td style="font-weight:bold;vertical-align:top;">utcnow</td><td style="vertical-align:top;">:</td><td><div>datetime.datetime(2015, 1, 15, 2, 29, 2, 244000)</div></td></tr><tr><td style="font-weight:bold;vertical-align:top;">uuid</td><td style="vertical-align:top;">:</td><td><div>FINAL/127.0.0.1.2015-01-15.00-29-02.12bc3b3c-9332-4000-a62d-1c87aaf7bdab</div></td></tr><tr><td style="font-weight:bold;vertical-align:top;">wsgi</td><td style="vertical-align:top;">:</td><td><div>&lt;gluon.main.LazyWSGI object at 0x06D4C790&gt;</div></td></tr></table></div>'
tRp62
sS'frames'
p63
(lp64
(dp65
S'file'
p66
S'C:\\home\\mdipierro\\make_web2py\\web2py\\gluon\\restricted.py'
p67
sS'dump'
p68
(dp69
sS'lnum'
p70
I220
sS'lines'
p71
(dp72
sS'call'
p73
S"(code='# -*- coding: utf-8 -*- \\n\\n\\n\\n####################...requires = IS_NOT_IN_DB(db, db.transporte.title)\\n', environment={'A': <class 'gluon.html.A'>, 'ACTIVITY_CATEGORIES': ['acad\\xc3\\xa9mico', 'caso de estudio', 'ciencia', 'cli', 'comunidad', 'core', 'educaci\\xc3\\xb3n', 'fomento', 'gui', 'herramientas', 'juegos', 'lenguaje', 'moviles', 'py3k', 'redes', 'seguridad', 'testing', 'web'], 'ACTIVITY_DURATION': {'poster': 0, 'talk': 45, 'tutorial': 120}, 'ACTIVITY_LEVELS': ('Beginner', 'Intermediate', 'Advanced'), 'ACTIVITY_ROOMS': {1: '5-6-7-8', 2: '9-10', 3: '13+14', 4: '31', 5: '35', 6: '32'}, 'ACTIVITY_SHOW_DESCRIPTION': False, 'ACTIVITY_TYPES': ('keynote', 'panel', 'plenary', 'tutorial', 'talk', 'poster', 'startup', 'stand', 'summit', 'open-space', 'social', 'break', 'lightning talk'), 'ANY_OF': <class 'gluon.validators.ANY_OF'>, 'ATTENDEE_TYPES': (('gratis', <lazyT 'Gratuito, $0'>),), 'ATTENDEE_TYPE_COST': {None: 0.0, 'gratis': 0.0}, ...}, layer=r'C:\\Users\\angel\\Desktop\\sql\\web2py\\applications\\FINAL\\models\\db.py')"
p74
sS'func'
p75
S'restricted'
p76
sa(dp77
g66
S'C:\\Users\\angel\\Desktop\\sql\\web2py\\applications\\FINAL\\models\\db.py'
p78
sg68
(dp79
S'Field'
p80
S"<class 'gluon.dal.Field'>"
p81
sS'label'
p82
S'undefined'
p83
sS'db'
p84
S'<DAL uri="sqlite://storage.sqlite">'
p85
sS'T'
S'<gluon.languages.translator object>'
p86
sS'db.localidad'
p87
S'<Table localidad (id,nombre_localidad)>'
p88
ssg70
I248
sg71
(dp89
I243
S'###########################################################################################################'
p90
sI244
S''
sI245
S'# TABLA "calle"'
p91
sI246
S'db.define_table("calle",'
p92
sI247
S'    Field("nombre_calle",label=T(\'Calle\')),'
p93
sI248
S'    Field("nombre_localidad",\'text\',db.localidad,label=T(\'Localidad\')),'
p94
sI249
S'    )'
p95
sI250
S''
sI251
S'# VALIDADORES "calle"'
p96
sI252
S"db.calle.nombre_calle.requires=IS_NOT_EMPTY(error_message='La calle no puede estar vacia')"
p97
ssg73
S'()'
p98
sg75
S'<module>'
p99
sa(dp100
g66
S'C:\\home\\mdipierro\\make_web2py\\web2py\\gluon\\dal.py'
p101
sg68
(dp102
sg70
I8223
sg71
(dp103
sg73
S'(self=<DAL uri="sqlite://storage.sqlite">, tablename=\'calle\', *fields=(<gluon.dal.Field object>, <gluon.dal.Field object>), **args={})'
p104
sg75
S'define_table'
p105
sa(dp106
g66
S'C:\\home\\mdipierro\\make_web2py\\web2py\\gluon\\dal.py'
p107
sg68
(dp108
sg70
I8260
sg71
(dp109
sg73
S'(self=<DAL uri="sqlite://storage.sqlite">, tablename=\'calle\', *fields=(<gluon.dal.Field object>, <gluon.dal.Field object>), **args={})'
p110
sg75
S'lazy_define_table'
p111
sa(dp112
g66
S'C:\\home\\mdipierro\\make_web2py\\web2py\\gluon\\dal.py'
p113
sg68
(dp114
sg70
I1122
sg71
(dp115
sg73
S'(self=<gluon.dal.SQLiteAdapter object>, table=<Table calle (id,nombre_calle,nombre_localidad)>, migrate=True, fake_migrate=False, polymodel=None)'
p116
sg75
S'create_table'
p117
sasS'pyver'
p118
S'Python 2.7.6: C:\\Users\\angel\\Desktop\\sql\\web2py\\web2py.exe (prefix: C:\\Python27)'
p119
sS'session'
p120
g61
(S's\x1a\x00\x00\x00<div><table></table></div>'
tRp121
sS'etype'
p122
S"<class 'cPickle.UnpicklingError'>"
p123
sS'date'
p124
S'Thu Jan 15 00:29:03 2015'
p125
sS'response'
p126
g61
(S's9\x19\x00\x00<div><table><tr><td style="font-weight:bold;vertical-align:top;">body</td><td style="vertical-align:top;">:</td><td><div>&lt;cStringIO.StringO object at 0x06D4CF00&gt;</div></td></tr><tr><td style="font-weight:bold;vertical-align:top;">cookies</td><td style="vertical-align:top;">:</td><td><div><table><tr><td style="font-weight:bold;vertical-align:top;">session_id_final</td><td style="vertical-align:top;">:</td><td><div>127.0.0.1-fa997353-2c3a-4faa-a6b8-6bfceef8dfbc<table><tr><td style="font-weight:bold;vertical-align:top;">comment</td><td style="vertical-align:top;">:</td><td><div></div></td></tr><tr><td style="font-weight:bold;vertical-align:top;">domain</td><td style="vertical-align:top;">:</td><td><div></div></td></tr><tr><td style="font-weight:bold;vertical-align:top;">expires</td><td style="vertical-align:top;">:</td><td><div></div></td></tr><tr><td style="font-weight:bold;vertical-align:top;">httponly</td><td style="vertical-align:top;">:</td><td><div></div></td></tr><tr><td style="font-weight:bold;vertical-align:top;">max-age</td><td style="vertical-align:top;">:</td><td><div></div></td></tr><tr><td style="font-weight:bold;vertical-align:top;">path</td><td style="vertical-align:top;">:</td><td><div>/</div></td></tr><tr><td style="font-weight:bold;vertical-align:top;">secure</td><td style="vertical-align:top;">:</td><td><div></div></td></tr><tr><td style="font-weight:bold;vertical-align:top;">version</td><td style="vertical-align:top;">:</td><td><div></div></td></tr></table></div></td></tr></table></div></td></tr><tr><td style="font-weight:bold;vertical-align:top;">delimiters</td><td style="vertical-align:top;">:</td><td><div><table><tr><td><div>{{</div></td></tr><tr><td><div>}}</div></td></tr></table></div></td></tr><tr><td style="font-weight:bold;vertical-align:top;">description</td><td style="vertical-align:top;">:</td><td><div>Powered by web2py</div></td></tr><tr><td style="font-weight:bold;vertical-align:top;">files</td><td style="vertical-align:top;">:</td><td><div><table></table></div></td></tr><tr><td style="font-weight:bold;vertical-align:top;">flash</td><td style="vertical-align:top;">:</td><td><div></div></td></tr><tr><td style="font-weight:bold;vertical-align:top;">footer</td><td style="vertical-align:top;">:</td><td><div>Conference description&lt;b&gt;dates&lt;/b&gt; city (organized by &lt;a href="#"&gt;users group&lt;/a&gt;). &lt;br/&gt;\nMore info: &lt;a href="#"&gt;blog&lt;/a&gt;&amp;nbsp; Contact: &lt;a href="#"&gt;mail address&lt;/a&gt;</div></td></tr><tr><td style="font-weight:bold;vertical-align:top;">generic_patterns</td><td style="vertical-align:top;">:</td><td><div><table></table></div></td></tr><tr><td style="font-weight:bold;vertical-align:top;">headers</td><td style="vertical-align:top;">:</td><td><div><table><tr><td style="font-weight:bold;vertical-align:top;">X-Powered-By</td><td style="vertical-align:top;">:</td><td><div>web2py</div></td></tr></table></div></td></tr><tr><td style="font-weight:bold;vertical-align:top;">keywords</td><td style="vertical-align:top;">:</td><td><div>python, free software</div></td></tr><tr><td style="font-weight:bold;vertical-align:top;">menu</td><td style="vertical-align:top;">:</td><td><div><table></table></div></td></tr><tr><td style="font-weight:bold;vertical-align:top;">meta</td><td style="vertical-align:top;">:</td><td><div><table></table></div></td></tr><tr><td style="font-weight:bold;vertical-align:top;">models_to_run</td><td style="vertical-align:top;">:</td><td><div><table><tr><td><div>^\\w+\\.py$</div></td></tr><tr><td><div>^Generar_guia_de_carga/\\w+\\.py$</div></td></tr><tr><td><div>^Generar_guia_de_carga/index/\\w+\\.py$</div></td></tr></table></div></td></tr><tr><td style="font-weight:bold;vertical-align:top;">postprocessing</td><td style="vertical-align:top;">:</td><td><div><table></table></div></td></tr><tr><td style="font-weight:bold;vertical-align:top;">session_client</td><td style="vertical-align:top;">:</td><td><div>127.0.0.1</div></td></tr><tr><td style="font-weight:bold;vertical-align:top;">session_cookie_compression_level</td><td style="vertical-align:top;">:</td><td><div>None</div></td></tr><tr><td style="font-weight:bold;vertical-align:top;">session_cookie_expires</td><td style="vertical-align:top;">:</td><td><div>None</div></td></tr><tr><td style="font-weight:bold;vertical-align:top;">session_cookie_key</td><td style="vertical-align:top;">:</td><td><div>None</div></td></tr><tr><td style="font-weight:bold;vertical-align:top;">session_data_name</td><td style="vertical-align:top;">:</td><td><div>session_data_final</div></td></tr><tr><td style="font-weight:bold;vertical-align:top;">session_file</td><td style="vertical-align:top;">:</td><td><div>None</div></td></tr><tr><td style="font-weight:bold;vertical-align:top;">session_filename</td><td style="vertical-align:top;">:</td><td><div>C:\\Users\\angel\\Desktop\\sql\\web2py\\applications\\FINAL\\sessions\\127.0.0.1-fa997353-2c3a-4faa-a6b8-6bfceef8dfbc</div></td></tr><tr><td style="font-weight:bold;vertical-align:top;">session_hash</td><td style="vertical-align:top;">:</td><td><div>106f4c22ca06cc343e42b73a0d8492f6</div></td></tr><tr><td style="font-weight:bold;vertical-align:top;">session_id</td><td style="vertical-align:top;">:</td><td><div>127.0.0.1-fa997353-2c3a-4faa-a6b8-6bfceef8dfbc</div></td></tr><tr><td style="font-weight:bold;vertical-align:top;">session_id_name</td><td style="vertical-align:top;">:</td><td><div>session_id_final</div></td></tr><tr><td style="font-weight:bold;vertical-align:top;">session_masterapp</td><td style="vertical-align:top;">:</td><td><div>FINAL</div></td></tr><tr><td style="font-weight:bold;vertical-align:top;">session_new</td><td style="vertical-align:top;">:</td><td><div>True</div></td></tr><tr><td style="font-weight:bold;vertical-align:top;">session_storage_type</td><td style="vertical-align:top;">:</td><td><div>file</div></td></tr><tr><td style="font-weight:bold;vertical-align:top;">status</td><td style="vertical-align:top;">:</td><td><div>200</div></td></tr><tr><td style="font-weight:bold;vertical-align:top;">subtitle</td><td style="vertical-align:top;">:</td><td><div></div></td></tr><tr><td style="font-weight:bold;vertical-align:top;">title</td><td style="vertical-align:top;">:</td><td><div>web2conf</div></td></tr><tr><td style="font-weight:bold;vertical-align:top;">view</td><td style="vertical-align:top;">:</td><td><div>Generar_guia_de_carga/index.html</div></td></tr></table></div>'
tRp127
sS'locals'
p128
(dp129
S'dbpath'
p130
S"r'C:\\Users\\angel\\Desktop\\sql\\web2py\\applications\\FINAL\\databases'"
p131
sS'migrate'
p132
S'True'
p133
sS'table'
p134
S'<Table calle (id,nombre_calle,nombre_localidad)>'
p135
sS'query'
p136
S"'CREATE TABLE calle(\\n    id INTEGER PRIMARY KEY A...bre_calle CHAR(512),\\n    nombre_localidad TEXT\\n);'"
p137
sS'postcreation_fields'
p138
S'[]'
p139
sS'field_type'
p140
S"'text'"
p141
sS'self'
p142
S'<gluon.dal.SQLiteAdapter object>'
p143
sS'tablename'
p144
S"'calle'"
p145
sS'field'
p146
S'<gluon.dal.Field object>'
p147
sS'ftype'
p148
S"'TEXT'"
p149
sS'polymodel'
p150
S'None'
p151
sS'tfile'
p152
S'<gluon.portalocker.LockedFile object>'
p153
sS'db'
p154
S'<DAL uri="sqlite://storage.sqlite">'
p155
sS'fake_migrate'
p156
S'False'
p157
sS'sql_fields'
p158
S"{'id': {'length': 512, 'notnull': False, 'sortable': 1, 'sql': 'INTEGER PRIMARY KEY AUTOINCREMENT', 'type': 'id', 'unique': False}, 'nombre_calle': {'length': 512, 'notnull': False, 'sortable': 2, 'sql': 'CHAR(512)', 'type': 'string', 'unique': False}, 'nombre_localidad': {'length': <Table localidad (id,nombre_localidad)>, 'notnull': False, 'sortable': 3, 'sql': 'TEXT', 'type': 'text', 'unique': False}}"
p159
sS'field_name'
p160
S"'nombre_localidad'"
p161
sS'types'
p162
S"{'big-id': 'BIGINT PRIMARY KEY AUTOINCREMENT', 'big-reference': 'BIGINT REFERENCES %(foreign_key)s ON DELETE %(on_delete_action)s', 'bigint': 'INTEGER', 'blob': 'BLOB', 'boolean': 'CHAR(1)', 'date': 'DATE', 'datetime': 'TIMESTAMP', 'decimal': 'DOUBLE', 'double': 'DOUBLE', 'float': 'DOUBLE', ...}"
p163
sS'sortable'
p164
S'3'
sS'sql_fields_aux'
p165
S"{'id': {'sql': 'INTEGER PRIMARY KEY AUTOINCREMENT'}, 'nombre_calle': {'sql': 'CHAR(512)'}, 'nombre_localidad': {'sql': 'TEXT'}}"
p166
sS'TFK'
p167
g21
sS'fields'
p168
S"'id INTEGER PRIMARY KEY AUTOINCREMENT,\\n    nombre_calle CHAR(512),\\n    nombre_localidad TEXT'"
p169
sS'table_rname'
p170
S"'calle'"
p171
sS'other'
p172
S"';'"
p173
sssS'traceback'
p174
S'Traceback (most recent call last):\n  File "/home/mdipierro/make_web2py/web2py/gluon/restricted.py", line 220, in restricted\n  File "C:\\Users\\angel\\Desktop\\sql\\web2py\\applications\\FINAL\\models\\db.py", line 248, in <module>\n    Field("nombre_localidad",\'text\',db.localidad,label=T(\'Localidad\')),\n  File "/home/mdipierro/make_web2py/web2py/gluon/dal.py", line 8223, in define_table\n  File "/home/mdipierro/make_web2py/web2py/gluon/dal.py", line 8260, in lazy_define_table\n  File "/home/mdipierro/make_web2py/web2py/gluon/dal.py", line 1122, in create_table\nUnpicklingError: pickle data was truncated\n'
p175
s.