(dp1
S'output'
p2
S'missing "pass" in view'
p3
sS'layer'
p4
S'ParserContainer'
p5
sS'code'
p6
S'response.write(\'<?xml version="1.0" encoding="utf-8"?>\\n<!DOCTYPE html PUBLIC "-//W3C//DTD XHTML 1.0 Strict//EN" "http://www.w3.org/TR/xhtml1/DTD/xhtml1-strict.dtd">\\n<html xmlns="http://www.w3.org/1999/xhtml" xml:lang="\', escape=False)\nresponse.write(T.accepted_language or \'es\')\nresponse.write(\'">\\n\\n<head>\\n    <titleOR >GESTOR C3</title>\\n    <link rel="shortcut icon" href="\', escape=False)\nresponse.write(URL(request.application,\'static\',\'favicon.ico\'))\nresponse.write(\'"     type="image/vnd.microsoft.icon">\\n    <meta http-equiv="content-type" content="text/html;charset=utf-8" />\\n    <meta http-equiv="Content-Style-Type" content="text/css" />\\n    \', escape=False)\nresponse.files.append(URL(request.application,\'static\',\'default.css\'))\nresponse.write(\'\\n    \', escape=False)\nresponse.write(\'<script type="text/javascript"><!--\\n    // These variables are used by the web2py_ajax_init function in web2py_ajax.js (which is loaded below).\\n    var w2p_ajax_confirm_message = "\', escape=False)\nresponse.write(T(\'Are you sure you want to delete this object?\'))\nresponse.write(\'";\\n    var w2p_ajax_date_format = "\', escape=False)\nresponse.write(T(\'%Y-%m-%d\'))\nresponse.write(\'";\\n    var w2p_ajax_datetime_format = "\', escape=False)\nresponse.write(T(\'%Y-%m-%d %H:%M:%S\'))\nresponse.write(\'";\\n    //--></script>\\n\', escape=False)\nresponse.files.insert(0,URL(\'static\',\'js/jquery.js\'))\nresponse.files.insert(1,URL(\'static\',\'css/calendar.css\'))\nresponse.files.insert(2,URL(\'static\',\'js/calendar.js\'))\nresponse.files.insert(3,URL(\'static\',\'js/web2py.js\'))\nresponse.include_meta()\nresponse.include_files()\nresponse.write(\'\\n\', escape=False)\nresponse.write(\'    \\n</head>\\n\\n<body>\\n\\n<!-- Begin: Script para poder guardar los cambios -->\\n<script>\\n    jQuery(document).ready(function(){\\n        jQuery(\\\'ul.sf-menu\\\').superfish({delay:400});});\\n</script>\\n<!-- End: Script para poder guardar los cambios -->\\n\\n    <!-- Begin: container -->\\n    <div id="container">\\n    \\n        <!-- End: Barra USER -->\\n        <div id="welcome">\\n        <p>\\n\\n        \', escape=False)\nif \'auth\' in globals():\n    response.write(\'\\n        \', escape=False)\n    if not auth.user:\n        response.write(\'\\n        \\n        <a href="\', escape=False)\n        response.write(URL(r=request,c=\'default\',f=\'user/login\'))\n        response.write(\'">\', escape=False)\n        response.write(T(\'Ingresar\'))\n        response.write(\'</a> |\\n        <a href="\', escape=False)\n        response.write(URL(r=request,c=\'default\',f=\'user/register\'))\n        response.write(\'">\', escape=False)\n        response.write(T(\'Registrarse\'))\n        response.write(\'</a> |\\n        <a href="\', escape=False)\n        response.write(URL(r=request,c=\'default\',f=\'user/request_reset_password\'))\n        response.write(\'">\', escape=False)\n        response.write(T(\'Olvide mi contrase\xc3\xb1a\'))\n        response.write(\'</a>\\n        \', escape=False)\n    else:\n        response.write(\'\\n        Bienvenido/a\\n        \', escape=False)\n        response.write(auth.user.first_name)\n        response.write(\' \', escape=False)\n        response.write(auth.user.last_name)\n        response.write(\' |\\n        <a href="\', escape=False)\n        response.write(URL(r=request,c=\'cliente\',f=\'user/profile\'))\n        response.write(\'">\', escape=False)\n        response.write(T(\'Perfil\'))\n        response.write(\'</a> |\\n        <a href="\', escape=False)\n        response.write(URL(r=request,c=\'cliente\',f=\'user/change_password\'))\n        response.write(\'">\', escape=False)\n        response.write(T(\'Cambiar contrase\xc3\xb1a\'))\n        response.write(\'</a> |\\n        <a href="\', escape=False)\n        response.write(URL(r=request,c=\'cliente\',f=\'user/logout\'))\n        response.write(\'">\', escape=False)\n        response.write(T(\'Salir\'))\n        response.write(\'</a>\\n        \', escape=False)\n        pass\n    response.write(\'\\n        \', escape=False)\n    pass\nresponse.write(\'\\n               \\n        </p>\\n        </div>        \\n        <!-- End: Barra USER -->\\n        \\n        <!-- Begin: Cartelito con mensajes -->\\n        <div class="flash">\', escape=False)\nresponse.write(response.flash or \'\')\nresponse.write(\'</div>\\n        <!-- End: Cartelito con mensajes -->\\n          \\n        <!-- Banner Image -->\\n        <h1 id="banner">\\n            \', escape=False)\nresponse.write(IMG(_src=URL(c=\'static\', f=\'images/aluminio.png\'), _alt=\'banner\'))\nresponse.write(\' \\n        </h1>\\n        \\n\\n        \\n        <!-- Navigation -->\\n        <ol id="navigation">\\n            <li><a class="button" href="\', escape=False)\nresponse.write(URL(request.application,\'articulo\',\'index\'))\nresponse.write(\'">INICIO</a></li>\\n            <li><a class="button" href="\', escape=False)\nresponse.write(URL(request.application,\'articulo\',\'indice\'))\nresponse.write(\'">PEDIDO</a></li>\\n\\n            <li><a class="button" href="\', escape=False)\nresponse.write(URL(request.application,\'articulo\',\'buy\'))\nresponse.write(\'">COMPRAR</a></li>\\n            <li><a class="button" href="\', escape=False)\nresponse.write(URL(request.application,\'articulo\',\'myorders\'))\nresponse.write(\'">ORDENES</a></li>\\n\\n            \\n               <!--\', escape=False)\nresponse.write(IMG(_src=URL(c=\'static\', f=\'images/web2pylogo.png\')))\nresponse.write(\' -->\\n      </ol>\\n        \\n        <!-- Begin: columns -->\\n      <div id="columns">\\n            \\n            <!-- Begin: column main -->\\n           <div class="column main">\\n            \\n\\n<!-- +++++++++++++++++++++++++++++++++++++++++++++++++++++++++++++++++++++++++++++ -->               \\n\\n\\n<!-- +++++++++++++++++++++++++++++++++++++++++++++++++++++++++++++++++++++++++++++ -->\\n                \\n     \', escape=False)\nresponse.write(\'\\n\', escape=False)\nif auth.has_membership (group_id=3):\n    response.write(\' \\n<center> <h1> BIENVENIDO A SECTOR DE OPERACIONES </h1> </center> \\n<FONT SIZE=3>\\n<center> <h3> \', escape=False)\n    response.write(auth.user.first_name)\n    response.write(\' \', escape=False)\n    response.write(auth.user.last_name)\n    response.write(\' </h3> </center> \\n</FONT>\\n<FONT SIZE=3>\\n\\n<center> \\n<br>\\n<p>\\n   Realice la gestion de los pedidos desde este sector.\\n</p><br>\\n\', escape=False)\n    response.write(IMG(_src=URL(c=\'static\', f=\'images/web2pylogo_large.png\'), _alt=\'web2pylogo_large\'))\n    response.write(\' \\n<br><br><p>\\n\\n</p><br>\\n\\n</center> \\n\\n</FONT>\\n\', escape=False)\n    response.write(\'\\n\\n<!-- +++++++++++++++++++++++++++++++++++++++++++++++++++++++++++++++++++++++++++++ -->\\n\\n\\n\\n<!-- +++++++++++++++++++++++++++++++++++++++++++++++++++++++++++++++++++++++++++++ -->\\n   \\n                 \\n            <!-- End: column main -->\\n           </div>\\n                    \\n        <!-- End: columns -->\\n       </div>\\n        \\n        <!-- Footer -->\\n        <div id="footer">\\n            <ol id="footer_navigation">\\n             <li> \\n            <li> \', escape=False)\n    response.write(IMG(_src=URL(c=\'static\', f=\'logos/gmeil.jpg\')))\n    response.write(\' <A HREF="https://accounts.google.com">\\n                \', escape=False)\n    response.write(IMG(_src=URL(c=\'static\', f=\'logos/images.jpg\')))\n    response.write(\' <A HREF="https://www.facebook.com">\\n                    \', escape=False)\n    response.write(IMG(_src=URL(c=\'static\', f=\'logos/twiter.jpg\')))\n    response.write(\' <A HREF="https://twitter.com">\\n\\n            </ol>\\n            <p> Esta pagina contiene &copy; Copyright 2012<a href="http://www.C3_sys.com.ar" target="_new">C3 SYS</a>, Todos los derechos quedan reservados.</p>\\n        </div>\\n    \\n    <!-- End: #container -->\\n    </div>\\n\', escape=False)'
p7
sS'snapshot'
p8
(dp9
S'exception'
p10
(dp11
S'__module__'
p12
S"'gluon.rocket'"
p13
sS'__getslice__'
p14
S"<method-wrapper '__getslice__' of SocketTimeout object>"
p15
sS'__str__'
p16
S"<method-wrapper '__str__' of SocketTimeout object>"
p17
sS'__reduce__'
p18
S'<built-in method __reduce__ of SocketTimeout object>'
p19
sS'__dict__'
p20
S'{}'
p21
sS'__sizeof__'
p22
S'<built-in method __sizeof__ of SocketTimeout object>'
p23
sS'__weakref__'
p24
S'None'
p25
sS'__init__'
p26
S"<method-wrapper '__init__' of SocketTimeout object>"
p27
sS'__setattr__'
p28
S"<method-wrapper '__setattr__' of SocketTimeout object>"
p29
sS'__reduce_ex__'
p30
S'<built-in method __reduce_ex__ of SocketTimeout object>'
p31
sS'__new__'
p32
S'<built-in method __new__ of type object>'
p33
sS'__format__'
p34
S'<built-in method __format__ of SocketTimeout object>'
p35
sS'__class__'
p36
S"<class 'gluon.rocket.SocketTimeout'>"
p37
sS'__doc__'
p38
S"'Exception for when a socket times out between requests.'"
p39
sS'__getitem__'
p40
S"<method-wrapper '__getitem__' of SocketTimeout object>"
p41
sS'__setstate__'
p42
S'<built-in method __setstate__ of SocketTimeout object>'
p43
sS'__getattribute__'
p44
S"<method-wrapper '__getattribute__' of SocketTimeout object>"
p45
sS'args'
p46
S"('Socket timed out before request.',)"
p47
sS'__subclasshook__'
p48
S'<built-in method __subclasshook__ of type object>'
p49
sS'__unicode__'
p50
S'<built-in method __unicode__ of SocketTimeout object>'
p51
sS'__delattr__'
p52
S"<method-wrapper '__delattr__' of SocketTimeout object>"
p53
sS'__repr__'
p54
S"<method-wrapper '__repr__' of SocketTimeout object>"
p55
sS'__hash__'
p56
S"<method-wrapper '__hash__' of SocketTimeout object>"
p57
ssS'evalue'
p58
S'Socket timed out before request.'
p59
sS'frames'
p60
(lp61
(dp62
S'file'
p63
S'/home/angel/web2py/gluon/rocket.py'
p64
sS'dump'
p65
(dp66
S'self'
p67
S'<WSGIWorker(Thread-5, started daemon -1298142400)>'
p68
sS'conn'
p69
S'<gluon.rocket.Connection object>'
p70
sS'self.run_app'
p71
S'<bound method WSGIWorker.run_app of <WSGIWorker(Thread-5, started daemon -1298142400)>>'
p72
ssS'lnum'
p73
I1337
sS'lines'
p74
(dp75
I1332
S'            # Enter connection serve loop'
p76
sI1333
S'            while True:'
p77
sI1334
S'                if __debug__:'
p78
sI1335
S"                    self.err_log.debug('Serving a request')"
p79
sI1336
S'                try:'
p80
sI1337
S'                    self.run_app(conn)'
p81
sI1338
S'                except:'
p82
sI1339
S'                    exc = sys.exc_info()'
p83
sI1340
S'                    handled = self._handleError(*exc)'
p84
sI1341
S'                    if handled:'
p85
ssS'call'
p86
S'(self=<WSGIWorker(Thread-5, started daemon -1298142400)>)'
p87
sS'func'
p88
S'run'
p89
sa(dp90
g63
S'/home/angel/web2py/gluon/rocket.py'
p91
sg65
(dp92
S'self'
p93
S'<WSGIWorker(Thread-5, started daemon -1298142400)>'
p94
sS'self.environ'
p95
S"{'HTTP_ACCEPT': 'text/html,application/xhtml+xml,application/xml;q=0.9,*/*;q=0.8', 'HTTP_ACCEPT_ENCODING': 'gzip, deflate', 'HTTP_ACCEPT_LANGUAGE': 'en-US,en;q=0.5', 'HTTP_CONNECTION': 'keep-alive', 'HTTP_COOKIE': 'session_id_welcome=127.0.0.1-07d30e9d-61ac-4a7a-...al=127.0.0.1-9cd79476-5a5b-4ee7-9533-55288cf709ec', 'HTTP_HOST': '127.0.0.1:8000', 'HTTP_REFERER': 'http://127.0.0.1:8000/FINAL/pedido/pedido', 'HTTP_UPGRADE_INSECURE_REQUESTS': '1', 'HTTP_USER_AGENT': 'Mozilla/5.0 (X11; Ubuntu; Linux i686; rv:50.0) Gecko/20100101 Firefox/50.0', 'PATH_INFO': '/FINAL/pedido/index', ...}"
p96
sS'sock_file'
p97
S'<socket._fileobject object>'
p98
sS'environ'
p99
S'undefined'
p100
sS'self.build_environ'
p101
S'<bound method WSGIWorker.build_environ of <WSGIWorker(Thread-5, started daemon -1298142400)>>'
p102
sS'conn'
p103
S'<gluon.rocket.Connection object>'
p104
ssg73
I1830
sg74
(dp105
I1825
S'        else:'
p106
sI1826
S'            sock_file = conn.makefile(BUF_SIZE)'
p107
sI1827
S''
sI1828
S'        try:'
p108
sI1829
S'            # Read the headers and build our WSGI environment'
p109
sI1830
S'            self.environ = environ = self.build_environ(sock_file, conn)'
p110
sI1831
S''
sI1832
S'            # Handle 100 Continue'
p111
sI1833
S"            if environ.get('HTTP_EXPECT', '') == '100-continue':"
p112
sI1834
S"                res = environ['SERVER_PROTOCOL'] + ' 100 Continue\\r\\n\\r\\n'"
p113
ssg86
S'(self=<WSGIWorker(Thread-5, started daemon -1298142400)>, conn=<gluon.rocket.Connection object>)'
p114
sg88
S'run_app'
p115
sa(dp116
g63
S'/home/angel/web2py/gluon/rocket.py'
p117
sg65
(dp118
S'sock_file'
p119
S'<socket._fileobject object>'
p120
sS'self.read_request_line'
p121
S'<bound method WSGIWorker.read_request_line of <WSGIWorker(Thread-5, started daemon -1298142400)>>'
p122
sS'self'
p123
S'<WSGIWorker(Thread-5, started daemon -1298142400)>'
p124
sS'request'
p125
g100
ssg73
I1650
sg74
(dp126
I1645
S'                                      "wsgiorg.futures": executor.futures})'
p127
sI1646
S''
sI1647
S'    def build_environ(self, sock_file, conn):'
p128
sI1648
S'        """ Build the execution environment. """'
p129
sI1649
S'        # Grab the request line'
p130
sI1650
S'        request = self.read_request_line(sock_file)'
p131
sI1651
S''
sI1652
S'        # Copy the Base Environment'
p132
sI1653
S'        environ = self.base_environ.copy()'
p133
sI1654
S''
ssg86
S'(self=<WSGIWorker(Thread-5, started daemon -1298142400)>, sock_file=<socket._fileobject object>, conn=<gluon.rocket.Connection object>)'
p134
sg88
S'build_environ'
p135
sa(dp136
g63
S'/home/angel/web2py/gluon/rocket.py'
p137
sg65
(dp138
S'global SocketTimeout'
p139
S"<class 'gluon.rocket.SocketTimeout'>"
p140
ssg73
I1401
sg74
(dp141
I1396
S''
sI1397
S'                d = sock_file.readline()'
p142
sI1398
S'                if PY3K:'
p143
sI1399
S"                    d = d.decode('ISO-8859-1')"
p144
sI1400
S'        except socket.timeout:'
p145
sI1401
S"            raise SocketTimeout('Socket timed out before request.')"
p146
sI1402
S'        except TypeError:'
p147
sI1403
S'            raise SocketClosed('
p148
sI1404
S"                'SSL bug caused closure of socket.  See '"
p149
sI1405
S'                \'"https://groups.google.com/d/topic/web2py/P_Gw0JxWzCs".\')'
p150
ssg86
S'(self=<WSGIWorker(Thread-5, started daemon -1298142400)>, sock_file=<socket._fileobject object>)'
p151
sg88
S'read_request_line'
p152
sasS'pyver'
p153
S'Python 2.7.6: /usr/bin/python (prefix: /usr)'
p154
sS'etype'
p155
S"<class 'gluon.rocket.SocketTimeout'>"
p156
sS'date'
p157
S'Mon Feb 27 17:25:25 2017'
p158
sS'locals'
p159
(dp160
S'sock_file'
p161
S'<socket._fileobject object>'
p162
sS'self'
p163
S'<WSGIWorker(Thread-5, started daemon -1298142400)>'
p164
sssS'traceback'
p165
S'Traceback (most recent call last):\n  File "/home/angel/web2py/gluon/rocket.py", line 1337, in run\n    self.run_app(conn)\n  File "/home/angel/web2py/gluon/rocket.py", line 1830, in run_app\n    self.environ = environ = self.build_environ(sock_file, conn)\n  File "/home/angel/web2py/gluon/rocket.py", line 1650, in build_environ\n    request = self.read_request_line(sock_file)\n  File "/home/angel/web2py/gluon/rocket.py", line 1401, in read_request_line\n    raise SocketTimeout(\'Socket timed out before request.\')\nSocketTimeout: Socket timed out before request.\n'
p166
s.