(dp1
S'output'
p2
S"<type 'exceptions.AttributeError'> 'Table' object has no attribute 'localidad'"
p3
sS'layer'
p4
S'/home/angel/web2py/applications/FINAL/models/db.py'
p5
sS'code'
p6
S'# -*- coding: utf-8 -*- \n\n\n\n#########################################################################\n## This scaffolding model makes your app work on Google App Engine too\n#########################################################################\n\nif request.env.web2py_runtime_gae:            # if running on Google App Engine\n    db = DAL(\'gae\')                           # connect to Google BigTable\n    session.connect(request, response, db = db) # and store sessions and tickets there\n    ### or use the following lines to store sessions in Memcache\n    # from gluon.contrib.memdb import MEMDB\n    # from google.appengine.api.memcache import Client\n    # session.connect(request, response, db = MEMDB(Client()))\nelse:                                         # else use a normal relational database\n    db = DAL(\'sqlite://storage.sqlite\')       # if not, use SQLite or other DB\n## if no need for session\n# session.forget()\n\n#########################################################################\n## Here is sample code if you need for \n## - email capabilities\n## - authentication (registration, login, logout, ... )\n## - authorization (role based authorization)\n## - services (xml, csv, json, xmlrpc, jsonrpc, amf, rss)\n## - crud actions\n## (more options discussed in gluon/tools.py)\n#########################################################################\n\nfrom gluon.tools import *\nmail = Mail()                                  # mailer\nauth = Auth(globals(),db)                      # authentication/authorization\ncrud = Crud(globals(),db)                      # for CRUD helpers using auth\nservice = Service(globals())                   # for json, xml, jsonrpc, xmlrpc, amfrpc\nplugins = PluginManager()\n\n###########################################################################################################\n# TABLA "auth_user" --> es la tabla de usuarios\n\ndb.define_table(\n    auth.settings.table_user_name,\n    Field(\'first_name\', length=128, default=\'\',label=T(\'Nombre\')),\n    Field(\'last_name\', length=128, default=\'\',label=T(\'Apellido\')),\n    Field(\'email\', length=128, default=\'\', unique=True,label=T(\'E-Mail\')),\n    Field(\'password\', \'password\', length=512,readable=False, label=\'Contrase\xc3\xb1a\'),\n    Field("dni",label=T(\'DNI\')),\n    Field(\'cod_cli\',\'string\',required=True,label=T(\'CODIGO DE CLIENTES\')),\n    Field(\'fecha_alta\', \'date\', default=request.now.date,\n          readable=True, writable=False),\n    Field(\'CUIT_CLIENTES\',"string", length=13,required=True,label=T(\'N\xc2\xb0 CUIT DEL CLIENTES\')),\n    Field(\'tipo_client_responsable\',\'string\',\n    requires=IS_IN_SET([ \'IVA\', \'EXENTO\',\'NORESPONSABLE\',\'MONOTRIBUTISTA\']),required=True,label=T(\'TIPO DE RESP.INSC\')),\n    Field(\'TIPO_EMPRESA\',requires=IS_IN_SET([ \'PRODUCCION\', \'COMERCIAL\',\'SERVICIOS\'])),\n    Field("fecha_nacimiento", \'date\',label=T(\'Fecha de nac.\')),\n    Field("ciudad",label=T(\'Localidad\')),\n    Field("calle",label=T(\'Calle\')),\n    Field("nro_calle", \'integer\',label=T(\'Nro de calle\')),\n    Field("entrecalle1",label=T(\'Entrecalle 1\')),\n    Field("entrecalle2",label=T(\'Entrecalle 2\')),\n    Field("telefono",label=T(\'Telefono\')),\n    Field(\'registration_key\', length=512,\n          writable=False, readable=False, default=\'\',label=T(\'Clave de registracion\')),\n    Field(\'reset_password_key\', length=512,\n          writable=False, readable=False, default=\'\',label=T(\'Clave de contrase\xc3\xb1a de restablecimiento\')),\n    Field(\'registration_id\', length=512,\n          writable=False, readable=False, default=\'\',label=T(\'ID de registracion\'))\n          )\n          \n# VALIDADORES "localidad"\nusuario = db[auth.settings.table_user_name] # Con esto se abrevia todo en "usuario"\n\nusuario.first_name.requires=IS_NOT_EMPTY(error_message=\'Falta ingresar nombre\')\n\nusuario.last_name.requires=IS_NOT_EMPTY(error_message=\'Falta ingresar apellido\')\n\n\n#usuario.password.requires = [IS_STRONG(min=4, special=2, upper=20), CRYPT()]\nusuario.password.requires=IS_NOT_EMPTY(error_message=\'Falta ingresar contrase\xc3\xb1a\')\n\nusuario.email.requires = [\n  IS_EMAIL(error_message=auth.messages.invalid_email),\n  IS_NOT_IN_DB(db, usuario.email)]\n  \nusuario.dni.lenght=8\nusuario.dni.requires=IS_NOT_IN_DB(db, \'auth_user.dni\')  \nusuario.dni.requires=IS_INT_IN_RANGE(10000000, 100000001, error_message=(\'Falta ingresar el DNI o lo ingreso mal\'))\n  \nusuario.fecha_nacimiento.requires=IS_NOT_EMPTY(error_message=\'Falta ingresar fecha de nacimiento\')  \n  \nusuario.localidad.requires=IS_IN_DB(db,\'localidad.nombre_localidad\')\n\nusuario.calle.requires=IS_IN_DB(db,\'calle.nombre_calle\')\n\nusuario.nro_calle.requires=IS_NOT_EMPTY(error_message=\'El nro de calle no puede estar vacio\')\nusuario.nro_calle.requires=IS_INT_IN_RANGE(1, 100001)\n\nusuario.entrecalle1.requires=IS_IN_DB(db,\'calle.nombre_calle\')\n#usuario.entrecalle1.requires=IS_NOT_EMPTY(error_message=\'Falta ingresar entrecalle\')\n\nusuario.entrecalle2.requires=IS_IN_DB(db,\'calle.nombre_calle\')\n#usuario.entrecalle2.requires=IS_NOT_EMPTY(error_message=\'Falta ingresar entrecalle\')\n\n###########################################################################################################\n\nmail.settings.server = \'logging\' or \'smtp.gmail.com:587\'  # your SMTP server\nmail.settings.sender = \'user@gmail.com\'         # your email\nmail.settings.login = \'username:password\'      # your credentials or None\n\nauth.settings.hmac_key = \'sha512:270d9ae1-e317-4100-bfd8-c7bd255e3a9c\'   # before define_tables()\nauth.define_tables()                           # creates all needed tables\nauth.settings.mailer = mail                    # for user email verification\nauth.settings.registration_requires_verification = False\nauth.settings.registration_requires_approval = False\nauth.settings.reset_password_requires_verification = True\n\n\n\nauth.settings.create_user_groups = False\n\n##################################################\n# Esto asigna membrecia de CLIENTE a todos los que se registren\n\ndef dar_permiso(form):\n    auth.add_membership(3, auth.user_id) \n\nauth.settings.register_onaccept = dar_permiso\n\n##################################################\n\n\n#########################################################################\n# MENSAJES\n#########################################################################\n\nauth.messages.submit_button = \'Aceptar\' \nauth.messages.verify_password = \'Reingrese su contrase\xc3\xb1a\' \nauth.messages.delete_label = \'De verificaci\xc3\xb3n para eliminar:\' \nauth.messages.function_disabled = \'Funci\xc3\xb3n desactivada\' \nauth.messages.access_denied = \'Privilegios insuficientes\' \nauth.messages.registration_verifying = \'El registro necesita ser verificado\' \nauth.messages.registration_pending = \'El registro todavia no fue aprobado\' \nauth.messages.login_disabled = \'Login desactivado por el administrador\' \nauth.messages.logged_in = \'Logueado\' \nauth.messages.email_sent = \'E-mail enviado\' \nauth.messages.unable_to_send_email = \'No se puede enviar el e-mail\' \nauth.messages.email_verified = \'E-mail verificado\' \nauth.messages.logged_out = \'Deslogueado\'\nauth.messages.registration_successful = \'Registracion satisfactoria\' \nauth.messages.invalid_email = \'E-mail invalido\' \nauth.messages.unable_send_email = \'No se puede enviar e-mail\' \nauth.messages.invalid_login = \'Login invalido\' \nauth.messages.invalid_user = \'Usuario invalido\' \nauth.messages.invalid_password = \'Contrase\xc3\xb1a invalida\' \nauth.messages.is_empty = "No puede estar vacio" \nauth.messages.mismatched_password = "Los campos de contrase\xc3\xb1a no coinciden" \nauth.messages.verify_email = \'Haga clic en el enlace http://\'+request.env.http_host+URL(r=request,c=\'default\',f=\'user\',args=[\'verify_email\'])+\'/%(key)s para verificar su e-mail\' \nauth.messages.verify_email_subject = \'E-mail de verificacion\' \nauth.messages.username_sent = \'Su nombre de usuario fue enviado por e-mail\' \nauth.messages.new_password_sent = \'Una nueva contrase\xc3\xb1a fue enviada por e-mail\' \nauth.messages.password_changed = \'Contrase\xc3\xb1a cambiada\' \nauth.messages.retrieve_username = \'Su nombre de usuario es: %(username)s\' \nauth.messages.retrieve_username_subject = \'Recuperar nombre de usuario\' \nauth.messages.retrieve_password = \'Su contrase\xc3\xb1a es: %(password)s\' \nauth.messages.retrieve_password_subject = \'Recuperar contrase\xc3\xb1a\' \nauth.messages.reset_password = \'Haga clic en el enlace http://\'+request.env.http_host+URL(r=request,c=\'default\',f=\'user\',args=[\'reset_password\'])+\'/%(key)s para restablecer la contrase\xc3\xb1a\'\nauth.messages.reset_password_subject = \'Restablecer contrase\xc3\xb1a\' \nauth.messages.invalid_reset_password = \'Contrase\xc3\xb1a de restablecimiento invalida\' \nauth.messages.profile_updated = \'Perfil actualizado\' \nauth.messages.new_password = \'Nueva contrase\xc3\xb1a\' \nauth.messages.old_password = \'Contrase\xc3\xb1a anterior\' \nauth.messages.group_description = \'Grupo asignado al usuario %(id)s\' \nauth.messages.register_log = \'Usuario %(id)s registrado\' \nauth.messages.login_log = \'Usuario %(id)s logueado\' \nauth.messages.logout_log = \'Usuario %(id)s Deslogueado\' \nauth.messages.profile_log = \'Perfil del usuario %(id)s actualizado\' \nauth.messages.verify_email_log = \'E-mail de verificacion enviado al usuario %(id)s\' \nauth.messages.retrieve_username_log = \'Nombre de usuario de %(id)s recuperado\' \nauth.messages.retrieve_password_log = \'Contrase\xc3\xb1a de %(id)s recuperada\' \nauth.messages.reset_password_log = \'Contrase\xc3\xb1a de %(id)s restablecida\' \nauth.messages.change_password_log = \'Contrase\xc3\xb1a de %(id)s modificada\' \nauth.messages.add_group_log = \'Grupo %(group_id)s creado\' \nauth.messages.del_group_log = \'Grupo %(group_id)s eliminado\' \nauth.messages.add_membership_log = None \nauth.messages.del_membership_log = None \nauth.messages.has_membership_log = None \nauth.messages.add_permission_log = None \nauth.messages.del_permission_log = None \nauth.messages.has_permission_log = None \nauth.messages.label_first_name = \'Nombre\' \nauth.messages.label_last_name = \'Apellido\' \nauth.messages.label_username = \'Nombre de usuario\' \nauth.messages.label_email = \'E-mail\' \nauth.messages.label_password = \'Contrase\xc3\xb1a\'\nauth.messages.label_registration_key = \'Clave de registracion\' \nauth.messages.label_reset_password_key = \'Clave de restablecimiento de contrase\xc3\xb1a\' \nauth.messages.label_registration_id = \'ID del registro\' \nauth.messages.label_role = \'Rol\' \nauth.messages.label_description = \'Descripcion\' \nauth.messages.label_user_id = \'ID del usuario\' \nauth.messages.label_group_id = \'ID del grupo\' \nauth.messages.label_name = \'Nombre\' \nauth.messages.label_table_name = \'Nombre de la tabla\' \nauth.messages.label_record_id = \'ID de registro\' \nauth.messages.label_time_stamp = \'Marca de tiempo\' \nauth.messages.label_client_ip = \'IP del cliente\' \nauth.messages.label_origin = \'Origen\' \nauth.messages.label_remember_me = "Recordarme (por 30 dias)" \n\n#########################################################################\n\ncrud.settings.auth = None                      # =auth to enforce authorization on crud\n\n#########################################################################\n## Define your tables below (or better in another model file) for example\n##\n## >>> db.define_table(\'mytable\',Field(\'myfield\',\'string\'))\n##\n## Fields can be \'string\',\'text\',\'password\',\'integer\',\'double\',\'boolean\'\n##       \'date\',\'time\',\'datetime\',\'blob\',\'upload\', \'reference TABLENAME\'\n## There is an implicit \'id integer autoincrement\' field\n## Consult manual for more options, validators, etc.\n##\n## More API examples for controllers:\n##\n## >>> db.mytable.insert(myfield=\'value\')\n## >>> rows=db(db.mytable.myfield==\'value\').select(db.mytable.ALL)\n## >>> for row in rows: print row.id, row.myfield\n#########################################################################\n\n# ACA COMIENZA EL PROYECTO REMIZER\n\n###########################################################################################################\n\n\n####################################################\n####################################################\ndb.define_table(\'ciudades\',\n   Field("ciudad",\n       requires=IS_IN_SET([\n             \'Moron\',\n             \'Merlo\',\n             \'Gonzales_Catan\'\n             \'Pontevedra\'])),\n\n\n    )\n#db.ciudades.Moron.requires=IS_IN_DB(db,db.LOCALIDAD_moron.id,\'%(calles_de_moron)s\')    \n#db.ciudades.Merlo.requires=IS_IN_DB(db,db.MERLO.id,\'%(CALLES_MERLO)s\')  \n#db.ciudades.Gonzales_Catan.requires=IS_IN_DB(db,db.CATAN.id,\'%(CALLES_G_CAT)s\')  \n#db.ciudades.Pontevedra.requires=IS_IN_DB(db,db.PONTEVEDRA.id,\'%(CALLES_PONTEVEDRA)s\')  \n    ###########################################################################\n\n###############################################\n############################\n\ndb.define_table("chofer",\n    Field("nombre",required=True),\n    Field("apellido",required=True),\n    Field(\'foto\', \'upload\'),\n    Field("dni",unique=True),\n    Field("fecha_nacimiento",\'date\'),\n    Field("direccion"),\n    Field("ciudad"),\n    Field("provincia"),\n    Field("pais"),\n    Field("telefono"),\n    Field("mail"),\n    Field("categoria","string", writable=False, readable=False),\n    Field("nro_licencia","string"),\n    Field("vencimiento", \'date\'),\n    Field("fecha_alta","datetime", writable=False, readable=False, \n    default=request.now),\n    )\n\n\n################################################################################\ndb.define_table("transporte",\n    Field("transporte_id","id"), \n    Field("nro_patente"),\n    Field("nro_motor"),\n    Field("title"),\n    Field("marca"),\n    Field("modelo"),\n    Field("tipo"),\n    Field("fecha_compra","date"),\n    Field("costo_compra"),\n    Field("lugar_compra"),\n    Field("seguro_compania"),\n    Field("seguro_monto"),\n    Field("seguro_vencimiento","date"),\n    Field("cant_ejes"),\n    Field("color"),\n    Field("capacidad_carga"),\n    Field("verificacion_tecnica",\'date\'),\n    Field("odometro_adquisicion"),\n    Field("foto","upload"),\n    Field("asigna_chofer",db.chofer,requires=IS_IN_DB(db,db.chofer,\'%(nombre)s-%(apellido)s-%(nro_licencia)s\')),\n    Field("estado_transporte",default=\'Disponible\',label=\'Estado del transporte\',\n        requires=IS_IN_SET((\'Disponible\',\'en viaje\',\'Fuera de servicio\'))),\n    \n    format=\'%(title)s\')\n\n\n\n##############################\ndb.define_table("Planta_origen",\n          Field(\'cod_planta_orig\',\'integer\',required=True,label=T(\'CODIGO DE PLANTA\')),\n          Field(\'Nombre_planta_orig\',\'string\',required=True,label=T(\'NOMBRE\')),\n          Field(\'Direccion_planta_orig\',\'string\',required=True,label=T(\'DIRECCION\')),\n)\n################################\ndb.define_table("Planta_destino",\n          Field(\'cod_planta_dest\',\'integer\',required=True,label=T(\'CODIGO DE PLANTA\')),\n          Field(\'Nombre_planta_dest\',\'integer\',required=True,label=T(\'NOMBRE\')),\n          Field(\'Direccion_planta_dest\',\'string\',required=True,label=T(\'DIRECCION\')),\n) \n#######################\n\n###############################################\ndb.define_table("deposito",\n          Field("cod_deposito","integer"),\n          Field(\'tipos_organizacion_dep\',\'string\',requires=IS_IN_SET([ \'LAMINADOS\', \'BARRAS TREFILADOS\',\'METAL DESPLEGABLE-ALUMINIO\',\'PERFILES ESTRUCTURALES\'])),\n          Field("fecha_deposito","date"),)\n     \n     \n\n######################################################e\n\n\n\n\n######################################\n\n\n###############################\n\n\ndb.define_table(\'articulo\',\n   Field(\'articulo_id\',\'id\'),\n   Field(\'imagen\', \'upload\'),\n   Field(\'nombre\',\'string\'),\n   Field(\'tipos_organizacion\',\'string\',requires=IS_IN_SET([ \'LAMINADOS\', \'BARRAS TREFILADOS\',\'METAL DESPLEGABLE-ALUMINIO\',\'PERFILES ESTRUCTURALES\'])),\n   Field("fecha","datetime", writable=False, readable=True, default=request.now),\n   Field(\'codigo_Articulo\',\'integer\',required=True,label=T(\'CODIGO DE ARTICULOS\')),\n   Field(\'Detalle_Articulo\', \'text\'),\n   Field(\'espesor\',\'integer\'),Field(\'ancho\',"integer"),Field(\'diametro\',\'integer\'),Field(\'unidades\',\'string\',requires=IS_IN_SET([ \'gramos\', \'kilogramos\',\'unidades\',\'botellas\',\'cajas\'])),     \n   Field(\'precio_Compra_Articulo\',\'double\',required=True,label=T(\'PRECIO DE COMPRA\')),\n   Field(\'precio_Venta_Articulo\',\'double\',required=True,label=T(\'PRECIO DE VENTA\')), \n   Field(\'cantidad\',\'integer\',required=True,label=T(\'CANTIDA\')),\n   Field("deposito",default=\'DEPOSITO 01\',label=\'DEPOSITO RECEPCION\'),\n   Field("fecha_de_recepcion", \'datetime\',default=request.now,label=\'FECHA DE RECEPCION DEL ARTICULO\'),\n   Field("lote",default=\'LOTE A-1\',label=\'LOTE DE ALMACENAMIENTO\',\n        requires=IS_IN_SET((\'LOTE A-1\',\'LOTE A-2\',\'LOTE A-3\'))),\n\n   Field(\'fecha_Baja_Articulo\',\'date\',writable=False,readable=False),\n   Field(\'sortable\',\'integer\'),\n   auth.signature,\n   format=\'%(nombre)s\')\n\n\ndb.define_table(\'factura\',\n    Field(\'nro_fact\', \'id\'),\n    Field(\'fecha\', \'date\', default=request.now.date()),\n    Field(\'cod_cli\', db.auth_user),\n    Field(\'total\', \'double\'),)\n\n# and one table to store sales of products to users\ndb.define_table(\'sale\',\n   Field(\'invoice\'),\n   Field(\'creditcard\',label=T(\'TARJETA DE CREDITO\')),\n   Field(\'buyer\',db.auth_user,default=auth.user_id,label=T(\'NOMBRE DE CLIETE\'),\n        requires = IS_IN_DB(db, db.auth_user.id, "(%(id)s) %(first_name)s %(last_name)s")),\n\n   Field(\'product\',db.articulo,requires=IS_IN_DB(db,db.articulo,\'%(nombre)s\'),\n    label=T(\'NOMBRE DEL ARTICULO\')),\n   Field(\'quantity\',\'integer\',label=T(\'CANTIDAD\')),\n   Field(\'price\',\'double\',label=T(\'PRECIO\')),\n   Field("fecha_de_pedido", \'datetime\',default=request.now,label=\'FECHA/HORA DEL PEDIDO  DEL ARTICULO\'),\n   Field("catalogar_pedido",default=\'Aplazable\',label=\'CATALOGAR PEDIDO\',\n        requires=IS_IN_SET((\'Aplazable\',\'URGENTE\'))),\n   Field("fecha_de_preparado", \'datetime\',default=request.now,label=\'FECHA/HORA DEL PREPARADO DEL PEDIDO\'),\n   Field("fecha_del_envio", \'datetime\',default=request.now,label=\'FECHA/HORA DE ENVIO DEL PEDIDO\'),\n   Field("fecha_de_entrega", \'datetime\',default=request.now,label=\'FECHA/HORA DE ENTREGA DEL PEDIDO\'),\n   Field(\'shipped\',\'boolean\',default=False,label=T(\'ENVIO\')),\n   Field("estado_pedido",default=\'Pendiente\',label=\'ESTADO DEL PEDIDO\',\n        requires=IS_IN_SET((\'En curso\',\'Realizado\',\'Pendiente\'))),\n   Field(\'shipping_address\',label=T(\'DIRECCIO DE ENVIO\')),\n   Field(\'shipping_city\',label=T(\'NOMBRE DE LA CIUDAD\')),\n   Field(\'shipping_state\',label=T(\'LOCALIDAD\')),\n   Field(\'shipping_zip_code\',label=T(\'CODIGO POSTAL DE ENVIO\')),\n   Field(\'shipping_date\',\'datetime\',label=T(\'FECHA DE ENVIO\')),\n   Field(\'delivery_date\',\'datetime\',label=T(\'FECHA DE ENTREGA\')),\n   Field(\'tracking_number\',label=T(\'NUMERO DE SEGUIMIENTO\')),\n   Field("puerta_partida",default=\'PUERTA P-1\',label=\'PUERTA DE PARTIDA\',\n        requires=IS_IN_SET((\'PUERTA P-1\',\'PUERTA P-2\',\'PUERTA P-3\'))),\n   Field(\'asignar_transporte\',db.transporte,label=T(\'DATOS DEL TRASPORTE \'),\n      requires=IS_IN_DB(db,db.transporte.id,\'%(id)s-%(tipo)s-%(nro_patente)s-%(asigna_chofer)s\')),   \n   Field(\'asignar_chofer\',db.chofer,label=T(\'DATOS DEL CHOFER\'),\n      requires=IS_IN_DB(db,db.chofer.id,\'%(id)s-%(nombre)s-%(apellido)s-%(dni)s\')), \n   auth.signature),\n\n# we also make a session cart, just in case\nsession.cart = session.cart or {}\n#######################################\ndb.define_table(\'Factuas_venta\',\n    Field(\'nro_fact\', db.factura),\n    Field(\'cant\', \'integer\'),\n    Field(\'cod_art\', db.articulo),\n    Field(\'importe\', \'double\'),\n)\n#################################\n\ndb.define_table(\'factura_item\', \n    Field(\'invoice_id\', db.factura), \n    Field(\'product_id\', db.articulo), \n    Field(\'quantity\', \'double\'), \n    Field(\'price\', \'double\'), \n    Field(\'sub_total\', \'double\'), \n)\ndb.define_table(\'Remito\',\n    Field(\'numero_remito\',\'id\'), \n    Field(\'cliente_id\', db.sale,\n        requires = IS_IN_DB(db, db.sale, "%(buyer)s" )),\n    Field(\'cliente_domicilio\', db.auth_user,\n        requires = IS_IN_DB(db, db.auth_user.id, "%(localidad)s -%(calle)s - %(nro_calle)s -(%(id)s)" )),    \n    Field("localidad_id_destino", db.sale,\n        requires = IS_IN_DB(db, db.sale.id, "%(shipping_address)s - (%(id)s)" )),\n    Field(\'detalle\', db.sale,\n        requires = IS_IN_DB(db, db.sale.id, "%(product)s - (%(id)s)" )),   \n    Field(\'cantidad\', \'double\'), \n    Field(\'fecha_de_entrega\', \'double\'),\n    Field(\'forma_de_entrega\', db.sale,\n        requires = IS_IN_DB(db, db.sale.id, "%(asignar_transporte)s - (%(id)s)" )),) \n##########################################################################\n  \n\n######################################\ndb.define_table(\'stock\',\n    Field(\'cod_art\', db.articulo,requires=IS_IN_DB(db,db.articulo.articulo_id,\'%(codigo_Articulo)s\')),\n    Field(\'cant\', \'integer\'), # + para ingresos, - para egresos\n    Field(\'fecha\', \'datetime\', default=request.now),\n    )\n\n#############################################\n\ndb.chofer.nombre.requires=IS_NOT_EMPTY(error_message=\'coloque el nombre\')    \ndb.chofer.apellido.requires=IS_NOT_EMPTY(error_message=\'coloque el apellido\')\ndb.chofer.dni.requires=IS_NOT_EMPTY(error_message=\'debe colocar n\xc2\xba de dni\'), IS_NOT_IN_DB(db, db.chofer.dni)\ndb.chofer.direccion.requires=IS_NOT_EMPTY(error_message=\'coloque la direccion\')\ndb.chofer.ciudad.requires=IS_NOT_EMPTY(error_message=\'coloque la ciudad\')\ndb.chofer.direccion.requires=IS_NOT_EMPTY(error_message=\'coloque la direccion\')\ndb.chofer.categoria.requires = IS_IN_SET([\'chofer\', \'peon de carga\', \'empleado mantenimiento\'])\n\ndb.transporte.asigna_chofer.requires = IS_IN_DB(db, db.chofer.id,"%(id)s-%(nombre)s-%(apellido)s-%(dni)s" )\ndb.transporte.title.requires = IS_NOT_IN_DB(db, db.transporte.title)\n'
p7
sS'snapshot'
p8
(dp9
S'exception'
p10
(dp11
S'__hash__'
p12
S"<method-wrapper '__hash__' of exceptions.AttributeError object>"
p13
sS'__setattr__'
p14
S"<method-wrapper '__setattr__' of exceptions.AttributeError object>"
p15
sS'__reduce_ex__'
p16
S'<built-in method __reduce_ex__ of exceptions.AttributeError object>'
p17
sS'__getslice__'
p18
S"<method-wrapper '__getslice__' of exceptions.AttributeError object>"
p19
sS'__getitem__'
p20
S"<method-wrapper '__getitem__' of exceptions.AttributeError object>"
p21
sS'__setstate__'
p22
S'<built-in method __setstate__ of exceptions.AttributeError object>'
p23
sS'__reduce__'
p24
S'<built-in method __reduce__ of exceptions.AttributeError object>'
p25
sS'__str__'
p26
S"<method-wrapper '__str__' of exceptions.AttributeError object>"
p27
sS'__format__'
p28
S'<built-in method __format__ of exceptions.AttributeError object>'
p29
sS'__getattribute__'
p30
S"<method-wrapper '__getattribute__' of exceptions.AttributeError object>"
p31
sS'__class__'
p32
S"<type 'exceptions.AttributeError'>"
p33
sS'__unicode__'
p34
S'<built-in method __unicode__ of exceptions.AttributeError object>'
p35
sS'__delattr__'
p36
S"<method-wrapper '__delattr__' of exceptions.AttributeError object>"
p37
sS'__subclasshook__'
p38
S'<built-in method __subclasshook__ of type object>'
p39
sS'__repr__'
p40
S"<method-wrapper '__repr__' of exceptions.AttributeError object>"
p41
sS'args'
p42
S'("\'Table\' object has no attribute \'localidad\'",)'
p43
sS'__dict__'
p44
S'{}'
p45
sS'__sizeof__'
p46
S'<built-in method __sizeof__ of exceptions.AttributeError object>'
p47
sS'__doc__'
p48
S"'Attribute not found.'"
p49
sS'__init__'
p50
S"<method-wrapper '__init__' of exceptions.AttributeError object>"
p51
sS'__new__'
p52
S'<built-in method __new__ of type object>'
p53
ssS'evalue'
p54
S"'Table' object has no attribute 'localidad'"
p55
sS'request'
p56
cgluon.html
XML_unpickle
p57
(S'sh]\x00\x00<div><table><tr><td style="font-weight:bold;vertical-align:top;">ajax</td><td style="vertical-align:top;">:</td><td><div>True</div></td></tr><tr><td style="font-weight:bold;vertical-align:top;">application</td><td style="vertical-align:top;">:</td><td><div>FINAL</div></td></tr><tr><td style="font-weight:bold;vertical-align:top;">args</td><td style="vertical-align:top;">:</td><td><div><table></table></div></td></tr><tr><td style="font-weight:bold;vertical-align:top;">cid</td><td style="vertical-align:top;">:</td><td><div>c539870703877</div></td></tr><tr><td style="font-weight:bold;vertical-align:top;">client</td><td style="vertical-align:top;">:</td><td><div>127.0.0.1</div></td></tr><tr><td style="font-weight:bold;vertical-align:top;">controller</td><td style="vertical-align:top;">:</td><td><div>appadmin</div></td></tr><tr><td style="font-weight:bold;vertical-align:top;">cookies</td><td style="vertical-align:top;">:</td><td><div><table><tr><td style="font-weight:bold;vertical-align:top;">session_id_admin</td><td style="vertical-align:top;">:</td><td><div>127.0.0.1-11633506-a972-4fc1-a78a-a7cf7b24fdd2<table><tr><td style="font-weight:bold;vertical-align:top;">comment</td><td style="vertical-align:top;">:</td><td><div></div></td></tr><tr><td style="font-weight:bold;vertical-align:top;">domain</td><td style="vertical-align:top;">:</td><td><div></div></td></tr><tr><td style="font-weight:bold;vertical-align:top;">expires</td><td style="vertical-align:top;">:</td><td><div></div></td></tr><tr><td style="font-weight:bold;vertical-align:top;">httponly</td><td style="vertical-align:top;">:</td><td><div></div></td></tr><tr><td style="font-weight:bold;vertical-align:top;">max-age</td><td style="vertical-align:top;">:</td><td><div></div></td></tr><tr><td style="font-weight:bold;vertical-align:top;">path</td><td style="vertical-align:top;">:</td><td><div></div></td></tr><tr><td style="font-weight:bold;vertical-align:top;">secure</td><td style="vertical-align:top;">:</td><td><div></div></td></tr><tr><td style="font-weight:bold;vertical-align:top;">version</td><td style="vertical-align:top;">:</td><td><div></div></td></tr></table></div></td></tr><tr><td style="font-weight:bold;vertical-align:top;">session_id_final</td><td style="vertical-align:top;">:</td><td><div>127.0.0.1-78f48e96-f0ac-4301-a796-c2d6562db76a<table><tr><td style="font-weight:bold;vertical-align:top;">comment</td><td style="vertical-align:top;">:</td><td><div></div></td></tr><tr><td style="font-weight:bold;vertical-align:top;">domain</td><td style="vertical-align:top;">:</td><td><div></div></td></tr><tr><td style="font-weight:bold;vertical-align:top;">expires</td><td style="vertical-align:top;">:</td><td><div></div></td></tr><tr><td style="font-weight:bold;vertical-align:top;">httponly</td><td style="vertical-align:top;">:</td><td><div></div></td></tr><tr><td style="font-weight:bold;vertical-align:top;">max-age</td><td style="vertical-align:top;">:</td><td><div></div></td></tr><tr><td style="font-weight:bold;vertical-align:top;">path</td><td style="vertical-align:top;">:</td><td><div></div></td></tr><tr><td style="font-weight:bold;vertical-align:top;">secure</td><td style="vertical-align:top;">:</td><td><div></div></td></tr><tr><td style="font-weight:bold;vertical-align:top;">version</td><td style="vertical-align:top;">:</td><td><div></div></td></tr></table></div></td></tr><tr><td style="font-weight:bold;vertical-align:top;">session_id_welcome</td><td style="vertical-align:top;">:</td><td><div>127.0.0.1-fb76716b-6acf-49e4-8ed1-8780ccb46ae4<table><tr><td style="font-weight:bold;vertical-align:top;">comment</td><td style="vertical-align:top;">:</td><td><div></div></td></tr><tr><td style="font-weight:bold;vertical-align:top;">domain</td><td style="vertical-align:top;">:</td><td><div></div></td></tr><tr><td style="font-weight:bold;vertical-align:top;">expires</td><td style="vertical-align:top;">:</td><td><div></div></td></tr><tr><td style="font-weight:bold;vertical-align:top;">httponly</td><td style="vertical-align:top;">:</td><td><div></div></td></tr><tr><td style="font-weight:bold;vertical-align:top;">max-age</td><td style="vertical-align:top;">:</td><td><div></div></td></tr><tr><td style="font-weight:bold;vertical-align:top;">path</td><td style="vertical-align:top;">:</td><td><div></div></td></tr><tr><td style="font-weight:bold;vertical-align:top;">secure</td><td style="vertical-align:top;">:</td><td><div></div></td></tr><tr><td style="font-weight:bold;vertical-align:top;">version</td><td style="vertical-align:top;">:</td><td><div></div></td></tr></table></div></td></tr></table></div></td></tr><tr><td style="font-weight:bold;vertical-align:top;">env</td><td style="vertical-align:top;">:</td><td><div><table><tr><td style="font-weight:bold;vertical-align:top;">HTTP_ACCEPT</td><td style="vertical-align:top;">:</td><td><div>*/*</div></td></tr><tr><td style="font-weight:bold;vertical-align:top;">HTTP_ACCEPT_ENCODING</td><td style="vertical-align:top;">:</td><td><div>gzip, deflate</div></td></tr><tr><td style="font-weight:bold;vertical-align:top;">HTTP_ACCEPT_LANGUAGE</td><td style="vertical-align:top;">:</td><td><div>en-US,en;q=0.5</div></td></tr><tr><td style="font-weight:bold;vertical-align:top;">HTTP_CONNECTION</td><td style="vertical-align:top;">:</td><td><div>keep-alive</div></td></tr><tr><td style="font-weight:bold;vertical-align:top;">HTTP_COOKIE</td><td style="vertical-align:top;">:</td><td><div>session_id_welcome=127.0.0.1-fb76716b-6acf-49e4-8ed1-8780ccb46ae4; session_id_admin=127.0.0.1-11633506-a972-4fc1-a78a-a7cf7b24fdd2; session_id_final=127.0.0.1-78f48e96-f0ac-4301-a796-c2d6562db76a</div></td></tr><tr><td style="font-weight:bold;vertical-align:top;">HTTP_HOST</td><td style="vertical-align:top;">:</td><td><div>127.0.0.1:8000</div></td></tr><tr><td style="font-weight:bold;vertical-align:top;">HTTP_REFERER</td><td style="vertical-align:top;">:</td><td><div>http://127.0.0.1:8000/admin/default/edit/FINAL/models/db.py</div></td></tr><tr><td style="font-weight:bold;vertical-align:top;">HTTP_USER_AGENT</td><td style="vertical-align:top;">:</td><td><div>Mozilla/5.0 (X11; Ubuntu; Linux i686; rv:50.0) Gecko/20100101 Firefox/50.0</div></td></tr><tr><td style="font-weight:bold;vertical-align:top;">HTTP_WEB2PY_COMPONENT_ELEMENT</td><td style="vertical-align:top;">:</td><td><div>c539870703877</div></td></tr><tr><td style="font-weight:bold;vertical-align:top;">HTTP_WEB2PY_COMPONENT_LOCATION</td><td style="vertical-align:top;">:</td><td><div>http://127.0.0.1:8000/admin/default/edit/FINAL/models/db.py</div></td></tr><tr><td style="font-weight:bold;vertical-align:top;">HTTP_X_REQUESTED_WITH</td><td style="vertical-align:top;">:</td><td><div>XMLHttpRequest</div></td></tr><tr><td style="font-weight:bold;vertical-align:top;">PATH_INFO</td><td style="vertical-align:top;">:</td><td><div>/FINAL/appadmin/hooks</div></td></tr><tr><td style="font-weight:bold;vertical-align:top;">QUERY_STRING</td><td style="vertical-align:top;">:</td><td><div></div></td></tr><tr><td style="font-weight:bold;vertical-align:top;">REMOTE_ADDR</td><td style="vertical-align:top;">:</td><td><div>127.0.0.1</div></td></tr><tr><td style="font-weight:bold;vertical-align:top;">REMOTE_PORT</td><td style="vertical-align:top;">:</td><td><div>56341</div></td></tr><tr><td style="font-weight:bold;vertical-align:top;">REQUEST_METHOD</td><td style="vertical-align:top;">:</td><td><div>GET</div></td></tr><tr><td style="font-weight:bold;vertical-align:top;">SCRIPT_NAME</td><td style="vertical-align:top;">:</td><td><div></div></td></tr><tr><td style="font-weight:bold;vertical-align:top;">SERVER_NAME</td><td style="vertical-align:top;">:</td><td><div>angel-Cantiga-ICH9M-Chipset</div></td></tr><tr><td style="font-weight:bold;vertical-align:top;">SERVER_PORT</td><td style="vertical-align:top;">:</td><td><div>8000</div></td></tr><tr><td style="font-weight:bold;vertical-align:top;">SERVER_PROTOCOL</td><td style="vertical-align:top;">:</td><td><div>HTTP/1.1</div></td></tr><tr><td style="font-weight:bold;vertical-align:top;">SERVER_SOFTWARE</td><td style="vertical-align:top;">:</td><td><div>Rocket 1.2.6</div></td></tr><tr><td style="font-weight:bold;vertical-align:top;">app_folders</td><td style="vertical-align:top;">:</td><td><div>set([&#x27;/home/angel/web2py/applications/welcome/&#x27;, &#x27;/home/angel/web2py/applications/admin/&#x27;, &#x27;/home/angel/web2py/applications/FINAL/&#x27;])</div></td></tr><tr><td style="font-weight:bold;vertical-align:top;">applications_parent</td><td style="vertical-align:top;">:</td><td><div>/home/angel/web2py</div></td></tr><tr><td style="font-weight:bold;vertical-align:top;">cmd_args</td><td style="vertical-align:top;">:</td><td><div><table></table></div></td></tr><tr><td style="font-weight:bold;vertical-align:top;">cmd_options</td><td style="vertical-align:top;">:</td><td><div>&lt;Values at 0xb536dcec: {&#x27;verbose&#x27;: False, &#x27;ip&#x27;: &#x27;127.0.0.1&#x27;, &#x27;debuglevel&#x27;: 30, &#x27;with_scheduler&#x27;: False, &#x27;shutdown_timeout&#x27;: 5, &#x27;taskbar&#x27;: False, &#x27;with_coverage&#x27;: False, &#x27;pid_filename&#x27;: &#x27;httpserver.pid&#x27;, &#x27;maxthreads&#x27;: None, &#x27;softcron&#x27;: False, &#x27;server_name&#x27;: &#x27;angel-Cantiga-ICH9M-Chipset&#x27;, &#x27;bpython&#x27;: False, &#x27;nogui&#x27;: False, &#x27;port&#x27;: 8000, &#x27;print_errors&#x27;: False, &#x27;extcron&#x27;: False, &#x27;runcron&#x27;: False, &#x27;run_system_tests&#x27;: False, &#x27;test&#x27;: None, &#x27;folder&#x27;: &#x27;/home/angel/web2py&#x27;, &#x27;config&#x27;: &#x27;&#x27;, &#x27;minthreads&#x27;: None, &#x27;shell&#x27;: None, &#x27;run&#x27;: &#x27;&#x27;, &#x27;log_filename&#x27;: &#x27;httpserver.log&#x27;, &#x27;profiler_dir&#x27;: None, &#x27;args&#x27;: [&#x27;&#x27;], &#x27;socket_timeout&#x27;: 5, &#x27;ssl_ca_certificate&#x27;: None, &#x27;scheduler&#x27;: None, &#x27;interfaces&#x27;: None, &#x27;ssl_private_key&#x27;: &#x27;&#x27;, &#x27;gae&#x27;: None, &#x27;password&#x27;: &#x27;******&#x27;, &#x27;request_queue_size&#x27;: 5, &#x27;ssl_certificate&#x27;: &#x27;&#x27;, &#x27;cronjob&#x27;: False, &#x27;numthreads&#x27;: None, &#x27;quiet&#x27;: False, &#x27;import_models&#x27;: False, &#x27;timeout&#x27;: 10, &#x27;plain&#x27;: False, &#x27;nobanner&#x27;: False}&gt;</div></td></tr><tr><td style="font-weight:bold;vertical-align:top;">db_sessions</td><td style="vertical-align:top;">:</td><td><div>set([])</div></td></tr><tr><td style="font-weight:bold;vertical-align:top;">debugging</td><td style="vertical-align:top;">:</td><td><div>True</div></td></tr><tr><td style="font-weight:bold;vertical-align:top;">gluon_parent</td><td style="vertical-align:top;">:</td><td><div>/home/angel/web2py</div></td></tr><tr><td style="font-weight:bold;vertical-align:top;">http_accept</td><td style="vertical-align:top;">:</td><td><div>*/*</div></td></tr><tr><td style="font-weight:bold;vertical-align:top;">http_accept_encoding</td><td style="vertical-align:top;">:</td><td><div>gzip, deflate</div></td></tr><tr><td style="font-weight:bold;vertical-align:top;">http_accept_language</td><td style="vertical-align:top;">:</td><td><div>en-US,en;q=0.5</div></td></tr><tr><td style="font-weight:bold;vertical-align:top;">http_connection</td><td style="vertical-align:top;">:</td><td><div>keep-alive</div></td></tr><tr><td style="font-weight:bold;vertical-align:top;">http_cookie</td><td style="vertical-align:top;">:</td><td><div>session_id_welcome=127.0.0.1-fb76716b-6acf-49e4-8ed1-8780ccb46ae4; session_id_admin=127.0.0.1-11633506-a972-4fc1-a78a-a7cf7b24fdd2; session_id_final=127.0.0.1-78f48e96-f0ac-4301-a796-c2d6562db76a</div></td></tr><tr><td style="font-weight:bold;vertical-align:top;">http_host</td><td style="vertical-align:top;">:</td><td><div>127.0.0.1:8000</div></td></tr><tr><td style="font-weight:bold;vertical-align:top;">http_referer</td><td style="vertical-align:top;">:</td><td><div>http://127.0.0.1:8000/admin/default/edit/FINAL/models/db.py</div></td></tr><tr><td style="font-weight:bold;vertical-align:top;">http_user_agent</td><td style="vertical-align:top;">:</td><td><div>Mozilla/5.0 (X11; Ubuntu; Linux i686; rv:50.0) Gecko/20100101 Firefox/50.0</div></td></tr><tr><td style="font-weight:bold;vertical-align:top;">http_web2py_component_element</td><td style="vertical-align:top;">:</td><td><div>c539870703877</div></td></tr><tr><td style="font-weight:bold;vertical-align:top;">http_web2py_component_location</td><td style="vertical-align:top;">:</td><td><div>http://127.0.0.1:8000/admin/default/edit/FINAL/models/db.py</div></td></tr><tr><td style="font-weight:bold;vertical-align:top;">http_x_requested_with</td><td style="vertical-align:top;">:</td><td><div>XMLHttpRequest</div></td></tr><tr><td style="font-weight:bold;vertical-align:top;">is_jython</td><td style="vertical-align:top;">:</td><td><div>False</div></td></tr><tr><td style="font-weight:bold;vertical-align:top;">is_pypy</td><td style="vertical-align:top;">:</td><td><div>False</div></td></tr><tr><td style="font-weight:bold;vertical-align:top;">is_source</td><td style="vertical-align:top;">:</td><td><div>True</div></td></tr><tr><td style="font-weight:bold;vertical-align:top;">local_hosts</td><td style="vertical-align:top;">:</td><td><div><table><tr><td><div>::1</div></td></tr><tr><td><div>127.0.1.1</div></td></tr><tr><td><div>angel-Cantiga-ICH9M-Chipset</div></td></tr><tr><td><div>::ffff:127.0.0.1</div></td></tr><tr><td><div>127.0.0.1</div></td></tr></table></div></td></tr><tr><td style="font-weight:bold;vertical-align:top;">path_info</td><td style="vertical-align:top;">:</td><td><div>/FINAL/appadmin/hooks</div></td></tr><tr><td style="font-weight:bold;vertical-align:top;">query_string</td><td style="vertical-align:top;">:</td><td><div></div></td></tr><tr><td style="font-weight:bold;vertical-align:top;">remote_addr</td><td style="vertical-align:top;">:</td><td><div>127.0.0.1</div></td></tr><tr><td style="font-weight:bold;vertical-align:top;">remote_port</td><td style="vertical-align:top;">:</td><td><div>56341</div></td></tr><tr><td style="font-weight:bold;vertical-align:top;">request_method</td><td style="vertical-align:top;">:</td><td><div>GET</div></td></tr><tr><td style="font-weight:bold;vertical-align:top;">request_uri</td><td style="vertical-align:top;">:</td><td><div>/FINAL/appadmin/hooks</div></td></tr><tr><td style="font-weight:bold;vertical-align:top;">script_name</td><td style="vertical-align:top;">:</td><td><div></div></td></tr><tr><td style="font-weight:bold;vertical-align:top;">server_name</td><td style="vertical-align:top;">:</td><td><div>angel-Cantiga-ICH9M-Chipset</div></td></tr><tr><td style="font-weight:bold;vertical-align:top;">server_port</td><td style="vertical-align:top;">:</td><td><div>8000</div></td></tr><tr><td style="font-weight:bold;vertical-align:top;">server_protocol</td><td style="vertical-align:top;">:</td><td><div>HTTP/1.1</div></td></tr><tr><td style="font-weight:bold;vertical-align:top;">server_software</td><td style="vertical-align:top;">:</td><td><div>Rocket 1.2.6</div></td></tr><tr><td style="font-weight:bold;vertical-align:top;">web2py_path</td><td style="vertical-align:top;">:</td><td><div>/home/angel/web2py</div></td></tr><tr><td style="font-weight:bold;vertical-align:top;">web2py_version</td><td style="vertical-align:top;">:</td><td><div>2.14.6-stable+timestamp.2016.05.10.00.21.47</div></td></tr><tr><td style="font-weight:bold;vertical-align:top;">wsgi.errors</td><td style="vertical-align:top;">:</td><td><div>&lt;open file &#x27;&lt;stderr&gt;&#x27;, mode &#x27;w&#x27; at 0xb74c70d0&gt;</div></td></tr><tr><td style="font-weight:bold;vertical-align:top;">wsgi.file_wrapper</td><td style="vertical-align:top;">:</td><td><div>&lt;class wsgiref.util.FileWrapper at 0xb6199fbc&gt;</div></td></tr><tr><td style="font-weight:bold;vertical-align:top;">wsgi.input</td><td style="vertical-align:top;">:</td><td><div>&lt;socket._fileobject object at 0xb23455ec&gt;</div></td></tr><tr><td style="font-weight:bold;vertical-align:top;">wsgi.multiprocess</td><td style="vertical-align:top;">:</td><td><div>False</div></td></tr><tr><td style="font-weight:bold;vertical-align:top;">wsgi.multithread</td><td style="vertical-align:top;">:</td><td><div>True</div></td></tr><tr><td style="font-weight:bold;vertical-align:top;">wsgi.run_once</td><td style="vertical-align:top;">:</td><td><div>False</div></td></tr><tr><td style="font-weight:bold;vertical-align:top;">wsgi.url_scheme</td><td style="vertical-align:top;">:</td><td><div>http</div></td></tr><tr><td style="font-weight:bold;vertical-align:top;">wsgi.version</td><td style="vertical-align:top;">:</td><td><div><table><tr><td><div>1</div></td></tr><tr><td><div>0</div></td></tr></table></div></td></tr><tr><td style="font-weight:bold;vertical-align:top;">wsgi_errors</td><td style="vertical-align:top;">:</td><td><div>&lt;open file &#x27;&lt;stderr&gt;&#x27;, mode &#x27;w&#x27; at 0xb74c70d0&gt;</div></td></tr><tr><td style="font-weight:bold;vertical-align:top;">wsgi_file_wrapper</td><td style="vertical-align:top;">:</td><td><div>&lt;class wsgiref.util.FileWrapper at 0xb6199fbc&gt;</div></td></tr><tr><td style="font-weight:bold;vertical-align:top;">wsgi_input</td><td style="vertical-align:top;">:</td><td><div>&lt;socket._fileobject object at 0xb23455ec&gt;</div></td></tr><tr><td style="font-weight:bold;vertical-align:top;">wsgi_multiprocess</td><td style="vertical-align:top;">:</td><td><div>False</div></td></tr><tr><td style="font-weight:bold;vertical-align:top;">wsgi_multithread</td><td style="vertical-align:top;">:</td><td><div>True</div></td></tr><tr><td style="font-weight:bold;vertical-align:top;">wsgi_run_once</td><td style="vertical-align:top;">:</td><td><div>False</div></td></tr><tr><td style="font-weight:bold;vertical-align:top;">wsgi_url_scheme</td><td style="vertical-align:top;">:</td><td><div>http</div></td></tr><tr><td style="font-weight:bold;vertical-align:top;">wsgi_version</td><td style="vertical-align:top;">:</td><td><div><table><tr><td><div>1</div></td></tr><tr><td><div>0</div></td></tr></table></div></td></tr></table></div></td></tr><tr><td style="font-weight:bold;vertical-align:top;">extension</td><td style="vertical-align:top;">:</td><td><div>html</div></td></tr><tr><td style="font-weight:bold;vertical-align:top;">folder</td><td style="vertical-align:top;">:</td><td><div>/home/angel/web2py/applications/FINAL/</div></td></tr><tr><td style="font-weight:bold;vertical-align:top;">function</td><td style="vertical-align:top;">:</td><td><div>hooks</div></td></tr><tr><td style="font-weight:bold;vertical-align:top;">global_settings</td><td style="vertical-align:top;">:</td><td><div><table><tr><td style="font-weight:bold;vertical-align:top;">app_folders</td><td style="vertical-align:top;">:</td><td><div>set([&#x27;/home/angel/web2py/applications/welcome/&#x27;, &#x27;/home/angel/web2py/applications/admin/&#x27;, &#x27;/home/angel/web2py/applications/FINAL/&#x27;])</div></td></tr><tr><td style="font-weight:bold;vertical-align:top;">applications_parent</td><td style="vertical-align:top;">:</td><td><div>/home/angel/web2py</div></td></tr><tr><td style="font-weight:bold;vertical-align:top;">cmd_args</td><td style="vertical-align:top;">:</td><td><div><table></table></div></td></tr><tr><td style="font-weight:bold;vertical-align:top;">cmd_options</td><td style="vertical-align:top;">:</td><td><div>&lt;Values at 0xb536dcec: {&#x27;verbose&#x27;: False, &#x27;ip&#x27;: &#x27;127.0.0.1&#x27;, &#x27;debuglevel&#x27;: 30, &#x27;with_scheduler&#x27;: False, &#x27;shutdown_timeout&#x27;: 5, &#x27;taskbar&#x27;: False, &#x27;with_coverage&#x27;: False, &#x27;pid_filename&#x27;: &#x27;httpserver.pid&#x27;, &#x27;maxthreads&#x27;: None, &#x27;softcron&#x27;: False, &#x27;server_name&#x27;: &#x27;angel-Cantiga-ICH9M-Chipset&#x27;, &#x27;bpython&#x27;: False, &#x27;nogui&#x27;: False, &#x27;port&#x27;: 8000, &#x27;print_errors&#x27;: False, &#x27;extcron&#x27;: False, &#x27;runcron&#x27;: False, &#x27;run_system_tests&#x27;: False, &#x27;test&#x27;: None, &#x27;folder&#x27;: &#x27;/home/angel/web2py&#x27;, &#x27;config&#x27;: &#x27;&#x27;, &#x27;minthreads&#x27;: None, &#x27;shell&#x27;: None, &#x27;run&#x27;: &#x27;&#x27;, &#x27;log_filename&#x27;: &#x27;httpserver.log&#x27;, &#x27;profiler_dir&#x27;: None, &#x27;args&#x27;: [&#x27;&#x27;], &#x27;socket_timeout&#x27;: 5, &#x27;ssl_ca_certificate&#x27;: None, &#x27;scheduler&#x27;: None, &#x27;interfaces&#x27;: None, &#x27;ssl_private_key&#x27;: &#x27;&#x27;, &#x27;gae&#x27;: None, &#x27;password&#x27;: &#x27;******&#x27;, &#x27;request_queue_size&#x27;: 5, &#x27;ssl_certificate&#x27;: &#x27;&#x27;, &#x27;cronjob&#x27;: False, &#x27;numthreads&#x27;: None, &#x27;quiet&#x27;: False, &#x27;import_models&#x27;: False, &#x27;timeout&#x27;: 10, &#x27;plain&#x27;: False, &#x27;nobanner&#x27;: False}&gt;</div></td></tr><tr><td style="font-weight:bold;vertical-align:top;">db_sessions</td><td style="vertical-align:top;">:</td><td><div>set([])</div></td></tr><tr><td style="font-weight:bold;vertical-align:top;">debugging</td><td style="vertical-align:top;">:</td><td><div>True</div></td></tr><tr><td style="font-weight:bold;vertical-align:top;">gluon_parent</td><td style="vertical-align:top;">:</td><td><div>/home/angel/web2py</div></td></tr><tr><td style="font-weight:bold;vertical-align:top;">is_jython</td><td style="vertical-align:top;">:</td><td><div>False</div></td></tr><tr><td style="font-weight:bold;vertical-align:top;">is_pypy</td><td style="vertical-align:top;">:</td><td><div>False</div></td></tr><tr><td style="font-weight:bold;vertical-align:top;">is_source</td><td style="vertical-align:top;">:</td><td><div>True</div></td></tr><tr><td style="font-weight:bold;vertical-align:top;">local_hosts</td><td style="vertical-align:top;">:</td><td><div><table><tr><td><div>::1</div></td></tr><tr><td><div>127.0.1.1</div></td></tr><tr><td><div>angel-Cantiga-ICH9M-Chipset</div></td></tr><tr><td><div>::ffff:127.0.0.1</div></td></tr><tr><td><div>127.0.0.1</div></td></tr></table></div></td></tr><tr><td style="font-weight:bold;vertical-align:top;">web2py_version</td><td style="vertical-align:top;">:</td><td><div>2.14.6-stable+timestamp.2016.05.10.00.21.47</div></td></tr></table></div></td></tr><tr><td style="font-weight:bold;vertical-align:top;">is_https</td><td style="vertical-align:top;">:</td><td><div>False</div></td></tr><tr><td style="font-weight:bold;vertical-align:top;">is_local</td><td style="vertical-align:top;">:</td><td><div>True</div></td></tr><tr><td style="font-weight:bold;vertical-align:top;">is_restful</td><td style="vertical-align:top;">:</td><td><div>False</div></td></tr><tr><td style="font-weight:bold;vertical-align:top;">is_scheduler</td><td style="vertical-align:top;">:</td><td><div>False</div></td></tr><tr><td style="font-weight:bold;vertical-align:top;">is_shell</td><td style="vertical-align:top;">:</td><td><div>False</div></td></tr><tr><td style="font-weight:bold;vertical-align:top;">now</td><td style="vertical-align:top;">:</td><td><div>datetime.datetime(2016, 12, 21, 18, 25, 13, 209397)</div></td></tr><tr><td style="font-weight:bold;vertical-align:top;">raw_args</td><td style="vertical-align:top;">:</td><td><div></div></td></tr><tr><td style="font-weight:bold;vertical-align:top;">raw_extension</td><td style="vertical-align:top;">:</td><td><div>None</div></td></tr><tr><td style="font-weight:bold;vertical-align:top;">url</td><td style="vertical-align:top;">:</td><td><div>/FINAL/appadmin/hooks</div></td></tr><tr><td style="font-weight:bold;vertical-align:top;">utcnow</td><td style="vertical-align:top;">:</td><td><div>datetime.datetime(2016, 12, 21, 21, 25, 13, 209433)</div></td></tr><tr><td style="font-weight:bold;vertical-align:top;">wsgi</td><td style="vertical-align:top;">:</td><td><div>&lt;gluon.main.LazyWSGI object at 0xacf4ee0c&gt;</div></td></tr></table></div>'
tRp58
sS'frames'
p59
(lp60
(dp61
S'file'
p62
S'/home/angel/web2py/gluon/restricted.py'
p63
sS'dump'
p64
(dp65
S'environment'
p66
S"{'A': <class 'gluon.html.A'>, 'ACTIVITY_CATEGORIES': ['acad\\xc3\\xa9mico', 'caso de estudio', 'ciencia', 'cli', 'comunidad', 'core', 'educaci\\xc3\\xb3n', 'fomento', 'gui', 'herramientas', 'juegos', 'lenguaje', 'moviles', 'py3k', 'redes', 'seguridad', 'testing', 'web'], 'ACTIVITY_DURATION': {'poster': 0, 'talk': 45, 'tutorial': 120}, 'ACTIVITY_LEVELS': ('Beginner', 'Intermediate', 'Advanced'), 'ACTIVITY_ROOMS': {1: '5-6-7-8', 2: '9-10', 3: '13+14', 4: '31', 5: '35', 6: '32'}, 'ACTIVITY_SHOW_DESCRIPTION': False, 'ACTIVITY_TYPES': ('keynote', 'panel', 'plenary', 'tutorial', 'talk', 'poster', 'startup', 'stand', 'summit', 'open-space', 'social', 'break', 'lightning talk'), 'ANY_OF': <class 'gluon.validators.ANY_OF'>, 'ASSIGNJS': <function ASSIGNJS>, 'ATTENDEE_TYPES': (('gratis', <lazyT 'Gratuito, $0'>),), ...}"
p67
sS'ccode'
p68
S'<code object <module> at 0xad23c8d8, file "/home.../web2py/applications/FINAL/models/db.py", line 9>'
p69
ssS'lnum'
p70
I227
sS'lines'
p71
(dp72
I224
S'            ccode = code'
p73
sI225
S'        else:'
p74
sI226
S'            ccode = compile2(code, layer)'
p75
sI227
S'        exec ccode in environment'
p76
sI228
S'    except HTTP:'
p77
sI229
S'        raise'
p78
sI230
S'    except RestrictedError:'
p79
sI231
S'        # do not encapsulate (obfuscate) the original RestrictedError'
p80
sI222
S'    try:'
p81
sI223
S'        if isinstance(code, types.CodeType):'
p82
ssS'call'
p83
S"(code='# -*- coding: utf-8 -*- \\n\\n\\n\\n####################...requires = IS_NOT_IN_DB(db, db.transporte.title)\\n', environment={'A': <class 'gluon.html.A'>, 'ACTIVITY_CATEGORIES': ['acad\\xc3\\xa9mico', 'caso de estudio', 'ciencia', 'cli', 'comunidad', 'core', 'educaci\\xc3\\xb3n', 'fomento', 'gui', 'herramientas', 'juegos', 'lenguaje', 'moviles', 'py3k', 'redes', 'seguridad', 'testing', 'web'], 'ACTIVITY_DURATION': {'poster': 0, 'talk': 45, 'tutorial': 120}, 'ACTIVITY_LEVELS': ('Beginner', 'Intermediate', 'Advanced'), 'ACTIVITY_ROOMS': {1: '5-6-7-8', 2: '9-10', 3: '13+14', 4: '31', 5: '35', 6: '32'}, 'ACTIVITY_SHOW_DESCRIPTION': False, 'ACTIVITY_TYPES': ('keynote', 'panel', 'plenary', 'tutorial', 'talk', 'poster', 'startup', 'stand', 'summit', 'open-space', 'social', 'break', 'lightning talk'), 'ANY_OF': <class 'gluon.validators.ANY_OF'>, 'ASSIGNJS': <function ASSIGNJS>, 'ATTENDEE_TYPES': (('gratis', <lazyT 'Gratuito, $0'>),), ...}, layer='/home/angel/web2py/applications/FINAL/models/db.py')"
p84
sS'func'
p85
S'restricted'
p86
sa(dp87
g62
S'/home/angel/web2py/applications/FINAL/models/db.py'
p88
sg64
(dp89
S'usuario.localidad'
p90
S'undefined'
p91
sS'IS_IN_DB'
p92
S"<class 'gluon.validators.IS_IN_DB'>"
p93
sS'db'
p94
S'<DAL uri="sqlite://storage.sqlite">'
p95
sS'usuario'
p96
S'<Table auth_user (id, first_name, last_name, ema...ration_key, reset_password_key, registration_id)>'
p97
ssg70
I91
sg71
(dp98
I86
S"usuario.dni.requires=IS_NOT_IN_DB(db, 'auth_user.dni')"
p99
sI87
S"usuario.dni.requires=IS_INT_IN_RANGE(10000000, 100000001, error_message=('Falta ingresar el DNI o lo ingreso mal'))"
p100
sI88
S''
sI89
S"usuario.fecha_nacimiento.requires=IS_NOT_EMPTY(error_message='Falta ingresar fecha de nacimiento')"
p101
sI90
S''
sI91
S"usuario.localidad.requires=IS_IN_DB(db,'localidad.nombre_localidad')"
p102
sI92
S''
sI93
S"usuario.calle.requires=IS_IN_DB(db,'calle.nombre_calle')"
p103
sI94
S''
sI95
S"usuario.nro_calle.requires=IS_NOT_EMPTY(error_message='El nro de calle no puede estar vacio')"
p104
ssg83
S'()'
p105
sg85
S'<module>'
p106
sasS'pyver'
p107
S'Python 2.7.6: /usr/bin/python (prefix: /usr)'
p108
sS'session'
p109
g57
(S's\xc9\x02\x00\x00<div><table><tr><td style="font-weight:bold;vertical-align:top;">cart</td><td style="vertical-align:top;">:</td><td><div><table><tr><td style="font-weight:bold;vertical-align:top;">3</td><td style="vertical-align:top;">:</td><td><div>1</div></td></tr></table></div></td></tr><tr><td style="font-weight:bold;vertical-align:top;">flash</td><td style="vertical-align:top;">:</td><td><div>None</div></td></tr><tr><td style="font-weight:bold;vertical-align:top;">last_orderby</td><td style="vertical-align:top;">:</td><td><div>None</div></td></tr><tr><td style="font-weight:bold;vertical-align:top;">last_query</td><td style="vertical-align:top;">:</td><td><div>db.Armado_de_rutas.id&gt;0</div></td></tr></table></div>'
tRp110
sS'etype'
p111
S"<type 'exceptions.AttributeError'>"
p112
sS'date'
p113
S'Wed Dec 21 18:25:13 2016'
p114
sS'response'
p115
g57
(S's\xdc\x1a\x00\x00<div><table><tr><td style="font-weight:bold;vertical-align:top;">body</td><td style="vertical-align:top;">:</td><td><div>&lt;cStringIO.StringO object at 0xacbfeee0&gt;</div></td></tr><tr><td style="font-weight:bold;vertical-align:top;">cookies</td><td style="vertical-align:top;">:</td><td><div><table><tr><td style="font-weight:bold;vertical-align:top;">session_id_final</td><td style="vertical-align:top;">:</td><td><div>127.0.0.1-78f48e96-f0ac-4301-a796-c2d6562db76a<table><tr><td style="font-weight:bold;vertical-align:top;">comment</td><td style="vertical-align:top;">:</td><td><div></div></td></tr><tr><td style="font-weight:bold;vertical-align:top;">domain</td><td style="vertical-align:top;">:</td><td><div></div></td></tr><tr><td style="font-weight:bold;vertical-align:top;">expires</td><td style="vertical-align:top;">:</td><td><div></div></td></tr><tr><td style="font-weight:bold;vertical-align:top;">httponly</td><td style="vertical-align:top;">:</td><td><div></div></td></tr><tr><td style="font-weight:bold;vertical-align:top;">max-age</td><td style="vertical-align:top;">:</td><td><div></div></td></tr><tr><td style="font-weight:bold;vertical-align:top;">path</td><td style="vertical-align:top;">:</td><td><div>/</div></td></tr><tr><td style="font-weight:bold;vertical-align:top;">secure</td><td style="vertical-align:top;">:</td><td><div></div></td></tr><tr><td style="font-weight:bold;vertical-align:top;">version</td><td style="vertical-align:top;">:</td><td><div></div></td></tr></table></div></td></tr></table></div></td></tr><tr><td style="font-weight:bold;vertical-align:top;">delimiters</td><td style="vertical-align:top;">:</td><td><div><table><tr><td><div>{{</div></td></tr><tr><td><div>}}</div></td></tr></table></div></td></tr><tr><td style="font-weight:bold;vertical-align:top;">description</td><td style="vertical-align:top;">:</td><td><div>Powered by web2py</div></td></tr><tr><td style="font-weight:bold;vertical-align:top;">files</td><td style="vertical-align:top;">:</td><td><div><table></table></div></td></tr><tr><td style="font-weight:bold;vertical-align:top;">flash</td><td style="vertical-align:top;">:</td><td><div></div></td></tr><tr><td style="font-weight:bold;vertical-align:top;">footer</td><td style="vertical-align:top;">:</td><td><div>Conference description&lt;b&gt;dates&lt;/b&gt; city (organized by &lt;a href="#"&gt;users group&lt;/a&gt;). &lt;br/&gt;\nMore info: &lt;a href="#"&gt;blog&lt;/a&gt;&amp;nbsp; Contact: &lt;a href="#"&gt;mail address&lt;/a&gt;</div></td></tr><tr><td style="font-weight:bold;vertical-align:top;">form_label_separator</td><td style="vertical-align:top;">:</td><td><div>: </div></td></tr><tr><td style="font-weight:bold;vertical-align:top;">formstyle</td><td style="vertical-align:top;">:</td><td><div>table3cols</div></td></tr><tr><td style="font-weight:bold;vertical-align:top;">generic_patterns</td><td style="vertical-align:top;">:</td><td><div><table><tr><td><div>*</div></td></tr></table></div></td></tr><tr><td style="font-weight:bold;vertical-align:top;">headers</td><td style="vertical-align:top;">:</td><td><div><table><tr><td style="font-weight:bold;vertical-align:top;">X-Powered-By</td><td style="vertical-align:top;">:</td><td><div>web2py</div></td></tr></table></div></td></tr><tr><td style="font-weight:bold;vertical-align:top;">keywords</td><td style="vertical-align:top;">:</td><td><div>python, free software</div></td></tr><tr><td style="font-weight:bold;vertical-align:top;">menu</td><td style="vertical-align:top;">:</td><td><div><table></table></div></td></tr><tr><td style="font-weight:bold;vertical-align:top;">meta</td><td style="vertical-align:top;">:</td><td><div><table></table></div></td></tr><tr><td style="font-weight:bold;vertical-align:top;">models_to_run</td><td style="vertical-align:top;">:</td><td><div><table><tr><td><div>^\\w+\\.py$</div></td></tr><tr><td><div>^appadmin/\\w+\\.py$</div></td></tr><tr><td><div>^appadmin/hooks/\\w+\\.py$</div></td></tr></table></div></td></tr><tr><td style="font-weight:bold;vertical-align:top;">postprocessing</td><td style="vertical-align:top;">:</td><td><div><table></table></div></td></tr><tr><td style="font-weight:bold;vertical-align:top;">session_client</td><td style="vertical-align:top;">:</td><td><div>127.0.0.1</div></td></tr><tr><td style="font-weight:bold;vertical-align:top;">session_cookie_compression_level</td><td style="vertical-align:top;">:</td><td><div>None</div></td></tr><tr><td style="font-weight:bold;vertical-align:top;">session_cookie_expires</td><td style="vertical-align:top;">:</td><td><div>None</div></td></tr><tr><td style="font-weight:bold;vertical-align:top;">session_data_name</td><td style="vertical-align:top;">:</td><td><div>session_data_final</div></td></tr><tr><td style="font-weight:bold;vertical-align:top;">session_file</td><td style="vertical-align:top;">:</td><td><div>&lt;open file &#x27;/home/angel/web2py/applications/FINAL/sessions/10b/0c4/127.0.0.1-78f48e96-f0ac-4301-a796-c2d6562db76a&#x27;, mode &#x27;rb+&#x27; at 0xacb04548&gt;</div></td></tr><tr><td style="font-weight:bold;vertical-align:top;">session_filename</td><td style="vertical-align:top;">:</td><td><div>/home/angel/web2py/applications/FINAL/sessions/127.0.0.1-78f48e96-f0ac-4301-a796-c2d6562db76a</div></td></tr><tr><td style="font-weight:bold;vertical-align:top;">session_hash</td><td style="vertical-align:top;">:</td><td><div>6aba3f0f0ade636280dca5938f4e84f7</div></td></tr><tr><td style="font-weight:bold;vertical-align:top;">session_id</td><td style="vertical-align:top;">:</td><td><div>127.0.0.1-78f48e96-f0ac-4301-a796-c2d6562db76a</div></td></tr><tr><td style="font-weight:bold;vertical-align:top;">session_id_name</td><td style="vertical-align:top;">:</td><td><div>session_id_final</div></td></tr><tr><td style="font-weight:bold;vertical-align:top;">session_locked</td><td style="vertical-align:top;">:</td><td><div>True</div></td></tr><tr><td style="font-weight:bold;vertical-align:top;">session_masterapp</td><td style="vertical-align:top;">:</td><td><div>FINAL</div></td></tr><tr><td style="font-weight:bold;vertical-align:top;">session_new</td><td style="vertical-align:top;">:</td><td><div>False</div></td></tr><tr><td style="font-weight:bold;vertical-align:top;">session_storage_type</td><td style="vertical-align:top;">:</td><td><div>file</div></td></tr><tr><td style="font-weight:bold;vertical-align:top;">status</td><td style="vertical-align:top;">:</td><td><div>200</div></td></tr><tr><td style="font-weight:bold;vertical-align:top;">subtitle</td><td style="vertical-align:top;">:</td><td><div></div></td></tr><tr><td style="font-weight:bold;vertical-align:top;">title</td><td style="vertical-align:top;">:</td><td><div>web2conf</div></td></tr><tr><td style="font-weight:bold;vertical-align:top;">view</td><td style="vertical-align:top;">:</td><td><div>appadmin/hooks.html</div></td></tr></table></div>'
tRp116
sS'locals'
p117
(dp118
S'FOOD_PREFERENCES'
p119
S"('normal', 'vegetarian', 'vegan', 'kosher', 'halal')"
p120
sS'Service'
p121
S"<class 'gluon.tools.Service'>"
p122
sS'EMAIL_VERIFICATION'
p123
S'True'
p124
sS'OBJECT'
p125
S"<class 'gluon.html.OBJECT'>"
p126
sS'datetime'
p127
S"<module 'datetime' from '/usr/lib/python2.7/lib-dynload/datetime.i386-linux-gnu.so'>"
p128
sS'ACTIVITY_ROOMS'
p129
S"{1: '5-6-7-8', 2: '9-10', 3: '13+14', 4: '31', 5: '35', 6: '32'}"
p130
sg109
S"<Storage {'last_query': 'db.Armado_de_rutas.id>0...ate]': ['c5754ddf-9445-4698-a742-8b63d26c7633']}>"
p131
sS'reverse_geocode'
p132
S'<function reverse_geocode>'
p133
sS'Auth'
p134
S"<class 'gluon.tools.Auth'>"
p135
sS'BR'
p136
S"<class 'gluon.html.BR'>"
p137
sS'local_import'
p138
S'<function <lambda>>'
p139
sS'OPTGROUP'
p140
S"<class 'gluon.html.OPTGROUP'>"
p141
sS'LI'
p142
S"<class 'gluon.html.LI'>"
p143
sS'redirect'
p144
S'<function redirect>'
p145
sS'IS_INT_IN_RANGE'
p146
S"<class 'gluon.validators.IS_INT_IN_RANGE'>"
p147
sS'IS_LOWER'
p148
S"<class 'gluon.validators.IS_LOWER'>"
p149
sS'IS_STRONG'
p150
S"<class 'gluon.validators.IS_STRONG'>"
p151
sS'Recaptcha'
p152
S"<class 'gluon.tools.Recaptcha'>"
p153
sS'cache'
p154
S'<gluon.cache.Cache object>'
p155
sS'T_SHIRT_SIZES_LABELS'
p156
S"(<lazyT 'no, thanks'>, <lazyT 'small'>, <lazyT 'medium'>, <lazyT 'large'>, <lazyT 'xlarge'>, <lazyT 'xxlarge'>, <lazyT 'xxxlarge'>)"
p157
sS'IS_IN_DB'
p158
S"<class 'gluon.validators.IS_IN_DB'>"
p159
sS'TAG'
p160
S'<gluon.html.__TAG__ object>'
p161
sS'SQLField'
p162
S"<class 'pydal.objects.Field'>"
p163
sS'mail'
p164
S'<gluon.tools.Mail object>'
p165
sS'RECAPTCHA_PRIVATE_KEY'
p166
S"''"
p167
sS'BODY'
p168
S"<class 'gluon.html.BODY'>"
p169
sS'IS_DATE_IN_RANGE'
p170
S"<class 'gluon.validators.IS_DATE_IN_RANGE'>"
p171
sS'TH'
p172
S"<class 'gluon.html.TH'>"
p173
sS'URL'
p174
S'<function URL>'
p175
sS'__file__'
p176
S"'/home/angel/web2py/applications/FINAL/models/db.py'"
p177
sS'PRECONF_DATE'
p178
S'datetime.datetime(2021, 3, 19, 6, 0)'
p179
sS'auth'
p180
S'<gluon.tools.Auth object>'
p181
sS'P'
S"<class 'gluon.html.P'>"
p182
sS'VERSION'
p183
S'0.5'
p184
sS'T'
S'<gluon.languages.translator object>'
p185
sS'ENABLE_EXPENSES'
p186
S'False'
p187
sS'XHTML'
p188
S"<class 'gluon.html.XHTML'>"
p189
sS'ACTIVITY_DURATION'
p190
S"{'poster': 0, 'talk': 45, 'tutorial': 120}"
p191
sS'RECAPTCHA_PUBLIC_KEY'
p192
S"''"
p193
sS'ON'
p194
g124
sS'OL'
p195
S"<class 'gluon.html.OL'>"
p196
sS'TEXTAREA'
p197
S"<class 'gluon.html.TEXTAREA'>"
p198
sS'REGCLOSE_DATE'
p199
S'datetime.datetime(2021, 9, 22, 1, 0)'
p200
sS'MENU'
p201
S"<class 'gluon.html.MENU'>"
p202
sS'IS_IMAGE'
p203
S"<class 'gluon.validators.IS_IMAGE'>"
p204
sS'LINK'
p205
S"<class 'gluon.html.LINK'>"
p206
sS'FA_EMAIL_UPDATES'
p207
g124
sS'CODE'
p208
S"<class 'gluon.html.CODE'>"
p209
sS'HTTP'
p210
S"<class 'gluon.http.HTTP'>"
p211
sS'ATTENDEE_TYPES'
p212
S"(('gratis', <lazyT 'Gratuito, $0'>),)"
p213
sS'HR'
p214
S"<class 'gluon.html.HR'>"
p215
sS'EMAIL_VERIFY_BODY'
p216
S"<lazyT '                                        ... click on the following link:\\n\\n%s\\n\\n--\\n%s\\n'>"
p217
sS'TRUETYPE_PATH'
p218
S"'/usr/share/fonts/truetype/freefont'"
p219
sS'STYLE'
p220
S"<class 'gluon.html.STYLE'>"
p221
sS'LABEL'
p222
S"<class 'gluon.html.LABEL'>"
p223
sS'CLEANUP'
p224
S"<class 'gluon.validators.CLEANUP'>"
p225
sS'INVOICE_HEADER'
p226
S"'This is a Conference Invoice!!!'"
p227
sS'ENABLE_FINANCIAL_AID'
p228
g187
sS'plugins'
p229
S'<gluon.tools.PluginManager object>'
p230
sS'SELECT'
p231
S"<class 'gluon.html.SELECT'>"
p232
sS'CENTER'
p233
S"<class 'gluon.html.CENTER'>"
p234
sS'prettydate'
p235
S'<function prettydate>'
p236
sS'CONFERENCE_COORDS'
p237
S'(-20.2597103, -61.4510078)'
p238
sS'Crud'
p239
S"<class 'gluon.tools.Crud'>"
p240
sS'REVIEW_DEADLINE_DATE'
p241
S'datetime.datetime(2021, 9, 5, 23, 0)'
p242
sS'IS_EQUAL_TO'
p243
S"<class 'gluon.validators.IS_EQUAL_TO'>"
p244
sS'HTML'
p245
S"<class 'gluon.html.HTML'>"
p246
sS'SQLFORM'
p247
S"<class 'gluon.sqlhtml.SQLFORM'>"
p248
sS'EMAIL_SERVER'
p249
S'None'
p250
sS'LOAD'
p251
S'<function LOAD>'
p252
sS'PRE'
p253
S"<class 'gluon.html.PRE'>"
p254
sS'FIELDSET'
p255
S"<class 'gluon.html.FIELDSET'>"
p256
sS'COST_SECOND_TUTORIAL'
p257
S'80.0'
p258
sS'__builtins__'
p259
S"{'ArithmeticError': <type 'exceptions.ArithmeticError'>, 'AssertionError': <type 'exceptions.AssertionError'>, 'AttributeError': <type 'exceptions.AttributeError'>, 'BaseException': <type 'exceptions.BaseException'>, 'BufferError': <type 'exceptions.BufferError'>, 'BytesWarning': <type 'exceptions.BytesWarning'>, 'DeprecationWarning': <type 'exceptions.DeprecationWarning'>, 'EOFError': <type 'exceptions.EOFError'>, 'Ellipsis': Ellipsis, 'EnvironmentError': <type 'exceptions.EnvironmentError'>, ...}"
p260
sS'embed64'
p261
S'<function embed64>'
p262
sS'IS_LIST_OF'
p263
S"<class 'gluon.validators.IS_LIST_OF'>"
p264
sS'SPONSOR_LEVELS'
p265
S"('Organizer', 'Sponsor Oro', 'Sponsor Plata', 'Sponsor Bronce', 'Agradecimiento Especial', '')"
p266
sS'TUTORIALS'
p267
g45
sS'INPUT'
p268
S"<class 'gluon.html.INPUT'>"
p269
sS'EMBED'
p270
S"<class 'gluon.html.EMBED'>"
p271
sS'ACTIVITY_SHOW_DESCRIPTION'
p272
g187
sS'H2'
p273
S"<class 'gluon.html.H2'>"
p274
sS'H3'
p275
S"<class 'gluon.html.H3'>"
p276
sS'BUTTON'
p277
S"<class 'gluon.html.BUTTON'>"
p278
sS'H1'
p279
S"<class 'gluon.html.H1'>"
p280
sS'H6'
p281
S"<class 'gluon.html.H6'>"
p282
sS'CONFERENCE_URL'
p283
S'None'
p284
sS'H4'
p285
S"<class 'gluon.html.H4'>"
p286
sS'H5'
p287
S"<class 'gluon.html.H5'>"
p288
sS'ENABLE_PAYMENTS'
p289
g187
sS'UL'
p290
S"<class 'gluon.html.UL'>"
p291
sS'IS_UPPER'
p292
S"<class 'gluon.validators.IS_UPPER'>"
p293
sS'PASSWORD_RETRIEVE_SUBJECT'
p294
S"<lazyT '%s Registration Password'>"
p295
sS'xmlescape'
p296
S'<function xmlescape>'
p297
sS'TUTORIALS_LIST'
p298
S'()'
p299
sS'IS_TIME'
p300
S"<class 'gluon.validators.IS_TIME'>"
p301
sS'ACTIVITY_CATEGORIES'
p302
S"['acad\\xc3\\xa9mico', 'caso de estudio', 'ciencia', 'cli', 'comunidad', 'core', 'educaci\\xc3\\xb3n', 'fomento', 'gui', 'herramientas', 'juegos', 'lenguaje', 'moviles', 'py3k', 'redes', 'seguridad', 'testing', 'web']"
p303
sS'OPTION'
p304
S"<class 'gluon.html.OPTION'>"
p305
sS'TITLE'
p306
S"<class 'gluon.html.TITLE'>"
p307
sS'ACTIVITY_LEVELS'
p308
S"('Beginner', 'Intermediate', 'Advanced')"
p309
sS'CRYPT'
p310
S"<class 'gluon.validators.CRYPT'>"
p311
sS'ACTIVITY_TYPES'
p312
S"('keynote', 'panel', 'plenary', 'tutorial', 'talk', 'poster', 'startup', 'stand', 'summit', 'open-space', 'social', 'break', 'lightning talk')"
p313
sS'IS_EMPTY_OR'
p314
S"<class 'gluon.validators.IS_EMPTY_OR'>"
p315
sS'MARKMIN'
p316
S"<class 'gluon.html.MARKMIN'>"
p317
sS'TODAY_DATE'
p318
S'datetime.datetime(2016, 12, 21, 18, 25, 13, 265553)'
p319
sS'Recaptcha2'
p320
S"<class 'gluon.tools.Recaptcha2'>"
p321
sS'__name__'
p322
S"'__restricted__'"
p323
sS'TUTORIALS_CAPS'
p324
g45
sS'COST_FIRST_TUTORIAL'
p325
S'120.0'
p326
sS'STRONG'
p327
S"<class 'gluon.html.STRONG'>"
p328
sS'EM'
p329
S"<class 'gluon.html.EM'>"
p330
sS'COL'
p331
S"<class 'gluon.html.COL'>"
p332
sS'is_gae'
p333
g187
sS'service'
p334
S'<gluon.tools.Service object>'
p335
sS'SCRIPT'
p336
S"<class 'gluon.html.SCRIPT'>"
p337
sS'IS_NOT_EMPTY'
p338
S"<class 'gluon.validators.IS_NOT_EMPTY'>"
p339
sS'geocode'
p340
S'<function geocode>'
p341
sS'FOOD_PREFERENCES_LABELS'
p342
S"(<lazyT 'normal'>, <lazyT 'vegetarian'>, <lazyT 'vegan'>, <lazyT 'kosher'>, <lazyT 'halal'>)"
p343
sS'TABLE'
p344
S"<class 'gluon.html.TABLE'>"
p345
sS'IS_IPV4'
p346
S"<class 'gluon.validators.IS_IPV4'>"
p347
sS'IS_LENGTH'
p348
S"<class 'gluon.validators.IS_LENGTH'>"
p349
sS'IS_IPV6'
p350
S"<class 'gluon.validators.IS_IPV6'>"
p351
sS'XML'
p352
S"<class 'gluon.html.XML'>"
p353
sS'Wiki'
p354
S"<class 'gluon.tools.Wiki'>"
p355
sS'IS_DATETIME'
p356
S"<class 'gluon.validators.IS_DATETIME'>"
p357
sS'IMG'
p358
S"<class 'gluon.html.IMG'>"
p359
sS'COUNTRIES'
p360
S"['United States', 'Afghanistan', 'Albania', 'Algeria', 'Andorra', 'Angola', 'Antigua and Barbuda', 'Argentina', 'Armenia', 'Australia', 'Austria', 'Azerbaijan', 'Bahamas', 'Bahrain', 'Bangladesh', 'Barbados', 'Belarus', 'Belgium', 'Belize', 'Benin', ...]"
p361
sS'SQLTABLE'
p362
S"<class 'gluon.sqlhtml.SQLTABLE'>"
p363
sS'IS_MATCH'
p364
S"<class 'gluon.validators.IS_MATCH'>"
p365
sS'HOST_NEXT'
p366
S"'localhost:8000'"
p367
sS'DBPOOLS'
p368
S'0'
sS'IS_ALPHANUMERIC'
p369
S"<class 'gluon.validators.IS_ALPHANUMERIC'>"
p370
sS'HOST'
p371
S"'localhost:8000'"
p372
sS'SIMPLIFIED_REGISTRATION'
p373
g124
sS'ATTENDEE_TYPE_COST'
p374
S"{None: 0.0, 'gratis': 0.0}"
p375
sS'HOTELS'
p376
S"('unknown', 'Hyatt Regency', 'Crowne Plaza', 'other', 'none')"
p377
sS'FA_EMAIL_TO'
p378
S"'pyconar2011@gmail.com'"
p379
sS'SPAN'
p380
S"<class 'gluon.html.SPAN'>"
p381
sS'IS_JSON'
p382
S"<class 'gluon.validators.IS_JSON'>"
p383
sS'IS_IPADDRESS'
p384
S"<class 'gluon.validators.IS_IPADDRESS'>"
p385
sS'usuario'
p386
S'<Table auth_user (id, first_name, last_name, ema...ration_key, reset_password_key, registration_id)>'
p387
sS'IS_SLUG'
p388
S"<class 'gluon.validators.IS_SLUG'>"
p389
sS'BEAUTIFY'
p390
S"<class 'gluon.html.BEAUTIFY'>"
p391
sS'META'
p392
S"<class 'gluon.html.META'>"
p393
sS'SQLDB'
p394
S"<class 'pydal.base.DAL'>"
p395
sS'FACUTOFF_DATE'
p396
S'datetime.datetime(2021, 2, 24, 6, 0)'
p397
sS'fetch'
p398
S'<function fetch>'
p399
sS'IS_DATE'
p400
S"<class 'gluon.validators.IS_DATE'>"
p401
sS'IS_EMAIL'
p402
S"<class 'gluon.validators.IS_EMAIL'>"
p403
sS'DBURI'
p404
S"'sqlite://development.db'"
p405
sS'GOOGLEMAP_KEY'
p406
S"''"
p407
sS'IS_FLOAT_IN_RANGE'
p408
S"<class 'gluon.validators.IS_FLOAT_IN_RANGE'>"
p409
sS'GOOGLE_SANDBOX'
p410
g124
sS'TBODY'
p411
S"<class 'gluon.html.TBODY'>"
p412
sS'CAT'
p413
S"<class 'gluon.html.CAT'>"
p414
sS'Field'
p415
S"<class 'pydal.objects.Field'>"
p416
sS'B'
S"<class 'gluon.html.B'>"
p417
sS'GSFONTS_PATH'
p418
S"'/usr/share/fonts/type1/gsfonts/'"
p419
sS'Mail'
p420
S"<class 'gluon.tools.Mail'>"
p421
sS'IS_LIST_OF_EMAILS'
p422
S"<class 'gluon.validators.IS_LIST_OF_EMAILS'>"
p423
sS'DIV'
p424
S"<class 'gluon.html.DIV'>"
p425
sS'LEGEND'
p426
S"<class 'gluon.html.LEGEND'>"
p427
sS'EMAIL_AUTH'
p428
S'None'
p429
sS'COLGROUP'
p430
S"<class 'gluon.html.COLGROUP'>"
p431
sS'DAL'
p432
S"<class 'pydal.base.DAL'>"
p433
sS'TT'
p434
S"<class 'gluon.html.TT'>"
p435
sS'GOOGLE_MERCHANT_KEY'
p436
S"''"
p437
sS'TR'
p438
S"<class 'gluon.html.TR'>"
p439
sS'GOOGLE_MERCHANT_ID'
p440
S"''"
p441
sS'__package__'
p442
S'None'
p443
sS'IFRAME'
p444
S"<class 'gluon.html.IFRAME'>"
p445
sS'TD'
p446
S"<class 'gluon.html.TD'>"
p447
sS'PluginManager'
p448
S"<class 'gluon.tools.PluginManager'>"
p449
sS'IS_URL'
p450
S"<class 'gluon.validators.IS_URL'>"
p451
sS'DO_RECAPTCHA'
p452
g187
sS'A'
S"<class 'gluon.html.A'>"
p453
sS'crud'
p454
S'<gluon.tools.Crud object>'
p455
sS'HEAD'
p456
S"<class 'gluon.html.HEAD'>"
p457
sS'PASSWORD_RETRIEVE_BODY'
p458
S"<lazyT 'Your new password is %(password)s'>"
p459
sS'IS_DATETIME_IN_RANGE'
p460
S"<class 'gluon.validators.IS_DATETIME_IN_RANGE'>"
p461
sS'FORM'
p462
S"<class 'gluon.html.FORM'>"
p463
sS'I'
S"<class 'gluon.html.I'>"
p464
sS'db'
p465
S'<DAL uri="sqlite://storage.sqlite">'
p466
sS'EMAIL_VERIFY_SUBJECT'
p467
S"<lazyT '%s Registration Confirmation'>"
p468
sS'IS_NOT_IN_DB'
p469
S"<class 'gluon.validators.IS_NOT_IN_DB'>"
p470
sS'T_SHIRT_SIZES'
p471
S"('', 'S', 'M', 'L', 'XL', 'XXL', 'XXXL')"
p472
sS'PROPOSALS_DEADLINE_DATE'
p473
S'datetime.datetime(2021, 8, 27, 23, 0)'
p474
sS'DEV_TEST'
p475
g124
sg115
S"<Storage {'body': <cStringIO.StringO object at 0...> at 0xacff67d4>, 'view': 'appadmin/hooks.html'}>"
p476
sS'THEAD'
p477
S"<class 'gluon.html.THEAD'>"
p478
sS'ANY_OF'
p479
S"<class 'gluon.validators.ANY_OF'>"
p480
sS'ENABLE_TALKS'
p481
g124
sS'IS_NULL_OR'
p482
S"<class 'gluon.validators.IS_EMPTY_OR'>"
p483
sS'EARLYBIRD_DATE'
p484
S'datetime.datetime(2021, 2, 22, 6, 0)'
p485
sg56
S"<Storage {'_vars': <Storage {}>, 'function': 'ho...lder': '/home/angel/web2py/applications/FINAL/'}>"
p486
sS'IS_EXPR'
p487
S"<class 'gluon.validators.IS_EXPR'>"
p488
sS'EMAIL_SENDER'
p489
S"'pyconar2011@gmail.com'"
p490
sS'IS_IN_SET'
p491
S"<class 'gluon.validators.IS_IN_SET'>"
p492
sS'TWITTER_HASH'
p493
S"'pyconar'"
p494
sS'IS_UPLOAD_FILENAME'
p495
S"<class 'gluon.validators.IS_UPLOAD_FILENAME'>"
p496
sS'IS_DECIMAL_IN_RANGE'
p497
S"<class 'gluon.validators.IS_DECIMAL_IN_RANGE'>"
p498
sS'ASSIGNJS'
p499
S'<function ASSIGNJS>'
p500
sS'TFOOT'
p501
S"<class 'gluon.html.TFOOT'>"
p502
sssS'traceback'
p503
S'Traceback (most recent call last):\n  File "/home/angel/web2py/gluon/restricted.py", line 227, in restricted\n    exec ccode in environment\n  File "/home/angel/web2py/applications/FINAL/models/db.py", line 91, in <module>\n    usuario.localidad.requires=IS_IN_DB(db,\'localidad.nombre_localidad\')\nAttributeError: \'Table\' object has no attribute \'localidad\'\n'
p504
s.