(dp1
S'output'
p2
S"<type 'exceptions.AttributeError'> 'Table' object has no attribute 'nombre'"
p3
sS'layer'
p4
S'C:\\Users\\angel\\Desktop\\sql\\web2py\\applications\\FINAL\\controllers/pedido.py'
p5
sS'code'
p6
S'def index():\n    if not auth.user_id:\n        redirect(URL(r=request, c="default", f="prohibido"))\n    \n    # SELECCIONA EL LAYOUT SEGUN EL USUARIO QUE SEA\n    esqueleto=\'skel.html\'\n    if auth.has_membership (group_id=3):\n        esqueleto=\' layout_gestionar.html\'\n    elif auth.has_membership (group_id=5):\n        esqueleto=\'layout_pedido.html\'\n    return dict(esqueleto = esqueleto)\ndef show():  \n    images = db.transporte(request.args(0)) or redirect(URL(\'mostrar_categarias\')).select(\n    imges.nro_motor,\n    images.modelo,\n    images.odometro_adquisicion,\n    images.marca,\n    images.tipo,\n    images.seguro_compania,\n    images.capacidad_carga\n    )\n    return dict(images=images)  \n        \ndef download():\n    return response.download(request, db)\n\ndef pedido():\n\n\n    lista_pedidos = db(\n    (db.sale.buyer>0) & \n    (db.sale.asignar_chofer!=None) & \n    (db.sale.product==db.articulo.nombre) &    \n#    (db.sale.product!=None) &\n    (db.sale.asignar_transporte!=None)\n    ).select(\n    db.sale.id,\n    db.sale.fecha_de_pedido,\n    db.sale.nombre,   \n    db.sale.estado_pedido,\n\n    db.sale.shipping_city,    \n    orderby=db.sale.estado_pedido,)\n    \n    lista_pedidos_incompletos = db((db.sale.asignar_chofer==None) & (db.sale.asignar_transporte==None)).select(\n    db.sale.id,\n    db.sale.fecha_de_pedido, \n    db.sale.nombre,\n    db.sale.estado_pedido,\n    db.sale.shipping_city, \n    db.sale.estado_pedido,\n    orderby=db.sale.fecha_de_pedido,)\n    \n#    lista_pedidos_cliente = db(db.sale.buyer==auth.user_id).select(\n#    db.sale.id,\n#    db.sale.fecha_de_pedido,\n#     db.sale.puerta_partida,\n#    db.sale.estado_pedido,\n#    orderby=db.sale.estado_pedido,)\n    \n#    lista_pedidos_chofer = db(db.sale.buyer==auth.user_id).select(\n#    db.sale.id,\n #   db.sale.fecha_de_pedido,\n#    db.sale.puerta_partida,\n#    db.sale.shipping_date,\n#    db.sale.asignar_transporte,\n#    db.sale.buyer,\n#    db.sale.asignar_chofer,    \n #   db.sale.estado_pedido,\n#    orderby=db.sale.estado_pedido,)\n    \n    return {\'lista_pedidos\' : lista_pedidos, \'lista_pedidos_incompletos\' : lista_pedidos_incompletos}\n\n############################################################################################################\n\n############################################################################################################\ndef registrar_pedido_cliente():\n\n    \n    # FORM 2 es el formulario que le falta CHOFER Y COCHE, lo utiliza solo el CLIENTE \n    form = SQLFORM.factory(\n        Field("fecha_pedido", \'datetime\',default=request.now, writable=False, readable=True),\n        Field("estado_pedido",label=T(\'Estado del pedido\'),default=\'Pendiente\', writable=False, readable=False),\n        Field("cliente_id", db.auth_user, default=auth.user_id, writable=False, readable=False,\n        requires = IS_IN_DB(db, db.auth_user.id,)),\n        Field("fecha_viaje", \'datetime\'),\n        Field("coche_id", db.coche, default=\'0\', writable=False, readable=False),\n        Field("localidad_id_partida", db.localidad,\n        requires = IS_IN_DB(db, db.localidad.id, "%(nombre_localidad)s - (%(id)s)" )),\n        Field("calle_partida", db.calle,\n        requires = IS_IN_DB(db, db.calle.id, "%(nombre_calle)s")),\n        Field("nro_calle_partida"),\n        Field("entrecalle1_partida", db.calle,\n        requires = IS_IN_DB(db, db.calle.id, "%(nombre_calle)s")),\n        Field("entrecalle2_partida", db.calle,\n        requires = IS_IN_DB(db, db.calle.id, "%(nombre_calle)s")),\n        Field("localidad_id_destino", db.localidad,\n        requires = IS_IN_DB(db, db.localidad.id, "%(nombre_localidad)s - (%(id)s)" )),\n        Field("calle_destino", db.calle,\n        requires = IS_IN_DB(db, db.calle.id, "%(nombre_calle)s")),\n        Field("nro_calle_destino"),\n        Field("entrecalle1_destino", db.calle,\n        requires = IS_IN_DB(db, db.calle.id, "%(nombre_calle)s")),\n        Field("entrecalle2_destino", db.calle,\n        requires = IS_IN_DB(db, db.calle.id, "%(nombre_calle)s")),\n        Field("chofer_id", db.auth_user,default=\'0\', writable=False, readable=False,\n        requires = IS_IN_DB(db, db.auth_user.id, "(%(id)s) %(first_name)s %(last_name)s" )),\n        submit_button=\'Reservar\')\n\n    if form.accepts(request.vars, session):\n        response.flash = \'Pedido realizado con exito!\'\n        db.pedido.insert(\n        fecha_viaje=form.vars.fecha_viaje,\n        coche_id=form.vars.coche_id,\n        localidad_id_partida=form.vars.localidad_id_partida,\n        calle_partida=form.vars.calle_partida,\n        nro_calle_partida=form.vars.nro_calle_partida,\n        entrecalle1_partida=form.vars.entrecalle1_partida,\n        entrecalle2_partida=form.vars.entrecalle2_partida,\n        localidad_id_destino=form.vars.localidad_id_destino,\n        calle_destino=form.vars.calle_destino,\n        nro_calle_destino=form.vars.nro_calle_destino,\n        entrecalle1_destino=form.vars.entrecalle1_destino,\n        entrecalle2_destino=form.vars.entrecalle2_destino,\n        chofer_id=form.vars.chofer_id,\n        )\n    elif form.errors:\n        response.flash = \'Hay errores, por favor corrijalos.\'\n        \n    return dict(form=form,esqueleto=esqueleto, nombre=nombre)    \n############################################################################################################\n\ndef fecha_viaje():       \n    \n    # Begin: BUSCADOR\n    import datetime\n    \n    # FORMULARIO PARA INGRESAR DATOS\n    form = SQLFORM.factory(\n        Field("fecha1",\'datetime\', label="Fecha Inicial",\n        default=datetime.datetime(2000,01,01,23,59,59),\n        requires = IS_DATETIME(error_message=(\'No cumple con el formato requerido\'))),\n        Field("fecha2",\'datetime\', label="Fecha Final",\n        default=datetime.datetime(2020,01,01,23,59,59),\n        requires = IS_DATETIME(error_message=(\'No cumple con el formato requerido\'))),\n        submit_button=\'Buscar\')\n\n    if form.accepts(request.vars, session):\n        response.flash = \'Busqueda realizada\'\n    elif form.errors:\n        response.flash = \'Hay errores, por favor corrijalos.\'\n    \n    # ASIGNA VARIABLES\n    fecha1=form.vars.fecha1\n    fecha2=form.vars.fecha2\n\n    # PREGUNTA SI LAS FECHAS ESTAN VACIAS Y LES ASIGNA UN VALOR PARA QUE NO HAYA ERRORES\n    if fecha1==None or fecha2==None:\n        fecha1="4000-01-01 00:00:00"\n        fecha2="4000-01-01 00:00:01"\n\n    # MUESTRA EL LISTADO DE PEDIDOS SEGUN LOS CAMPOS SOLICITADOS\n    buscar_pedidos = db((db.pedido.fecha_viaje>=fecha1) & (db.pedido.fecha_viaje<=fecha2) ).select(\n    db.pedido.id,\n    db.pedido.fecha_pedido,\n    db.pedido.fecha_viaje,\n    db.pedido.cliente_id,\n    db.pedido.chofer_id,\n    db.pedido.localidad_id_partida,\n    db.pedido.localidad_id_destino,\n    db.pedido.estado_pedido,\n    orderby=db.pedido.id,\n    )\n    return {\'buscar_pedidos\' : buscar_pedidos, \'form\' : form, \'fecha1\' : fecha1, \'fecha2\' : fecha2, \'esqueleto\' : esqueleto}    \n    # End: BUSCADOR\n\n############################################################################################################\n\ndef fecha_pedido():\n    if auth.user_id:\n        if auth.has_membership (group_id=1):\n            redirect(URL(r=request, c="default", f="prohibido"))  \n    else:\n        redirect(URL(r=request, c="default", f="prohibido"))\n    \n    # SELECCIONA EL LAYOUT SEGUN EL USUARIO QUE SEA\n    esqueleto=\'layout.html\'\n    if auth.has_membership (group_id=2):\n        esqueleto=\'layout_admin.html\'\n    elif auth.has_membership (group_id=5):\n        esqueleto=\'layout_despachador.html\'\n    elif auth.has_membership (group_id=3):\n        esqueleto=\'layout_cliente.html\'    \n    \n    # Begin: BUSCADOR\n    import datetime\n    \n    # FORMULARIO PARA INGRESAR DATOS\n    form = SQLFORM.factory(\n        Field("fecha1",\'datetime\', label="Fecha Inicial",\n        default=datetime.datetime(2000,01,01,23,59,59),\n        requires = IS_DATETIME(error_message=(\'No cumple con el formato requerido\'))),\n        Field("fecha2",\'datetime\', label="Fecha Final",\n        default=datetime.datetime(2020,01,01,23,59,59),\n        requires = IS_DATETIME(error_message=(\'No cumple con el formato requerido\'))),\n        submit_button=\'Buscar\')\n\n    if form.accepts(request.vars, session):\n        response.flash = \'Busqueda realizada\'\n    elif form.errors:\n        response.flash = \'Hay errores, por favor corrijalos.\'\n    \n    # ASIGNA VARIABLES\n    fecha1=form.vars.fecha1\n    fecha2=form.vars.fecha2\n\n    # PREGUNTA SI LAS FECHAS ESTAN VACIAS Y LES ASIGNA UN VALOR PARA QUE NO HAYA ERRORES\n    if fecha1==None or fecha2==None:\n        fecha1="4000-01-01 00:00:00"\n        fecha2="4000-01-01 00:00:01"\n\n    # MUESTRA EL LISTADO DE PEDIDOS SEGUN LOS CAMPOS SOLICITADOS\n    buscar_pedidos = db((db.pedido.fecha_pedido>=fecha1) & (db.pedido.fecha_pedido<=fecha2) ).select(\n    db.pedido.id,\n    db.pedido.fecha_pedido,\n    db.pedido.fecha_viaje,\n    db.pedido.localidad_id_partida,\n    db.pedido.localidad_id_destino,\n    db.pedido.cliente_id,\n    db.pedido.estado_pedido,\n    orderby=db.pedido.id,\n    )\n    return {\'buscar_pedidos\' : buscar_pedidos, \'form\' : form, \'fecha1\' : fecha1, \'fecha2\' : fecha2, \'esqueleto\' : esqueleto}    \n    # End: BUSCADOR\n\n############################################################################################################\n\ndef coche():\n    if auth.user_id:\n        if auth.has_membership (group_id=3):\n            redirect(URL(r=request, c="default", f="prohibido"))\n    else:\n        redirect(URL(r=request, c="default", f="prohibido"))\n    \n    # SELECCIONA EL LAYOUT SEGUN EL USUARIO QUE SEA\n    esqueleto=\'layout.html\'\n    if auth.has_membership (group_id=2):\n        esqueleto=\'layout_admin.html\'\n    elif auth.has_membership (group_id=5):\n        esqueleto=\'layout_despachador.html\'\n    elif auth.has_membership (group_id=1):\n        esqueleto=\'layout_chofer.html\'    \n    \n    # Begin: BUSCADOR\n    \n    # FORMULARIO PARA INGRESAR DATOS\n    form = SQLFORM.factory(\n        Field("coche", label="Coche",\n        requires = IS_IN_DB(db, db.coche.id, "(%(id)s) %(marca)s %(modelo)s [%(patente)s] %(color)s ")),\n        submit_button=\'Buscar\')\n\n    if form.accepts(request.vars, session):\n        response.flash = \'Busqueda realizada\'\n    elif form.errors:\n        response.flash = \'Hay errores, por favor corrijalos.\'\n    \n    # ASIGNA VARIABLES\n    coche=form.vars.coche\n\n    # MUESTRA EL LISTADO DE PEDIDOS SEGUN LOS CAMPOS SOLICITADOS\n    buscar_pedidos = db(db.pedido.coche_id==coche).select(\n    db.pedido.id,\n    db.pedido.fecha_pedido,\n    db.pedido.fecha_viaje,\n    db.pedido.localidad_id_partida,\n    db.pedido.localidad_id_destino,\n    db.pedido.chofer_id,\n    db.pedido.coche_id,\n    orderby=db.pedido.id,\n    )\n    return {\'buscar_pedidos\' : buscar_pedidos, \'form\' : form, \'coche\' : coche, \'esqueleto\' : esqueleto}    \n    # End: BUSCADOR\n\n############################################################################################################\n\ndef chofer():\n    \n    # Begin: BUSCADOR\n\n    # FORMULARIO PARA INGRESAR DATOS\n    form = SQLFORM.factory(\n        Field("chofer", label="Chofer",\n        requires = IS_IN_DB(db, db.auth_user.id, "(%(id)s) %(first_name)s %(last_name)s")),\n        submit_button=\'Buscar\')\n\n    if form.accepts(request.vars, session):\n        response.flash = \'Busqueda realizada\'\n    elif form.errors:\n        response.flash = \'Hay errores, por favor corrijalos.\'\n    \n    # ASIGNA VARIABLES\n    chofer=form.vars.chofer\n\n    # MUESTRA EL LISTADO DE PEDIDOS SEGUN LOS CAMPOS SOLICITADOS\n    buscar_pedidos = db(db.pedido.chofer_id==chofer).select(\n    db.pedido.id,\n    db.pedido.fecha_pedido,\n    db.pedido.fecha_viaje,\n    db.pedido.localidad_id_partida,\n    db.pedido.localidad_id_destino,\n    db.pedido.chofer_id,\n    orderby=db.pedido.id,\n    )\n    return {\'buscar_pedidos\' : buscar_pedidos, \'form\' : form, \'chofer\' : chofer, \'esqueleto\' : esqueleto}    \n    # End: BUSCADOR\n\n############################################################################################################\n\ndef cliente():\n   \n    \n    # Begin: BUSCADOR\n    \n    # FORMULARIO PARA INGRESAR DATOS\n    form = SQLFORM.factory(\n        Field("cliente", label="Cliente",\n        requires = IS_IN_DB(db, db.auth_user.id, "(%(id)s) %(first_name)s %(last_name)s")),\n        submit_button=\'Buscar\')\n\n    if form.accepts(request.vars, session):\n        response.flash = \'Busqueda realizada\'\n    elif form.errors:\n        response.flash = \'Hay errores, por favor corrijalos.\'\n    \n    # ASIGNA VARIABLES\n    cliente=form.vars.cliente\n\n    # MUESTRA EL LISTADO DE PEDIDOS SEGUN LOS CAMPOS SOLICITADOS\n    buscar_pedidos = db(db.sale.buyer==cliente).select(\n    db.sale.id,\n    db.sale.fecha_de_pedido,\n    db.sale.product,\n    db.sale.quantity,\n    db.sale.asignar_chofer,\n    orderby=db.sale.id,\n    )\n    return {\'buscar_pedidos\' : buscar_pedidos, \'form\' : form, \'cliente\' : cliente}    \n    # End: BUSCADOR   \n    \n############################################################################################################\n\ndef localidad_destino():\n       \n    \n    # Begin: BUSCADOR\n    \n    # FORMULARIO PARA INGRESAR DATOS\n    form = SQLFORM.factory(\n        Field("localidad", label="Localidad",\n        requires = IS_IN_DB(db, db.localidad.id, "(%(id)s) %(nombre_localidad)s")),\n        submit_button=\'Buscar\')\n\n    if form.accepts(request.vars, session):\n        response.flash = \'Busqueda realizada\'\n    elif form.errors:\n        response.flash = \'Hay errores, por favor corrijalos.\'\n    \n    # ASIGNA VARIABLES\n    localidad=form.vars.localidad\n\n    # MUESTRA EL LISTADO DE PEDIDOS SEGUN LOS CAMPOS SOLICITADOS\n    buscar_pedidos = db(db.pedido.localidad_id_destino==localidad).select(\n    db.pedido.id,\n    db.pedido.fecha_pedido,\n    db.pedido.fecha_viaje,\n    db.pedido.localidad_id_destino,\n    db.pedido.localidad_id_partida,\n    db.pedido.cliente_id,\n    db.pedido.chofer_id,\n    db.pedido.estado_pedido,\n    orderby=db.pedido.id,\n    )\n    return {\'buscar_pedidos\' : buscar_pedidos, \'form\' : form, \'localidad\' : localidad, \'esqueleto\' : esqueleto}    \n    # End: BUSCADOR  \n    \n############################################################################################################\n\ndef localidad_partida():\n       \n    \n    # Begin: BUSCADOR\n    \n    # FORMULARIO PARA INGRESAR DATOS\n    form = SQLFORM.factory(\n        Field("localidad", label="Localidad",\n        requires = IS_IN_DB(db, db.localidad.id, "(%(id)s) %(nombre_localidad)s")),\n        submit_button=\'Buscar\')\n\n    if form.accepts(request.vars, session):\n        response.flash = \'Busqueda realizada\'\n    elif form.errors:\n        response.flash = \'Hay errores, por favor corrijalos.\'\n    \n    # ASIGNA VARIABLES\n    localidad=form.vars.localidad\n\n    # MUESTRA EL LISTADO DE PEDIDOS SEGUN LOS CAMPOS SOLICITADOS\n    buscar_pedidos = db(db.pedido.localidad_id_partida==localidad).select(\n    db.pedido.id,\n    db.pedido.fecha_pedido,\n    db.pedido.fecha_viaje,\n    db.pedido.localidad_id_partida,\n    db.pedido.localidad_id_destino,\n    db.pedido.cliente_id,\n    db.pedido.chofer_id,\n    db.pedido.estado_pedido,\n    orderby=db.pedido.id,\n    )\n    return {\'buscar_pedidos\' : buscar_pedidos, \'form\' : form, \'localidad\' : localidad, \'esqueleto\' : esqueleto}    \n    # End: BUSCADOR         \n\n############################################################################################################\n\ndef estado():\n    \n    \n    # Begin: BUSCADOR\n    \n    # FORMULARIO PARA INGRESAR DATOS\n    form = SQLFORM.factory(\n        Field("estado", label="Estado",\n        requires = IS_IN_SET([\'En curso\',\'Realizado\',\'Pendiente\'])),\n        submit_button=\'Buscar\')\n\n    if form.accepts(request.vars, session):\n        response.flash = \'Busqueda realizada\'\n    elif form.errors:\n        response.flash = \'Hay errores, por favor corrijalos.\'\n    \n    # ASIGNA VARIABLES\n    estado=form.vars.estado\n\n    # MUESTRA EL LISTADO DE PEDIDOS SEGUN LOS CAMPOS SOLICITADOS\n    buscar_pedidos = db(db.pedido.estado_pedido==estado).select(\n    db.pedido.id,\n    db.pedido.fecha_pedido,\n    db.pedido.fecha_viaje,\n    db.pedido.estado_pedido,\n    db.pedido.localidad_id_partida,\n    db.pedido.localidad_id_destino,\n    db.pedido.cliente_id,\n    db.pedido.chofer_id,\n    orderby=db.pedido.id,\n    )\n    return {\'buscar_pedidos\' : buscar_pedidos, \'form\' : form, \'estado\' : estado, \'esqueleto\' : esqueleto}    \n    # End: BUSCADOR  \n\n############################################################################################################\n\ndef modificar_pedido():\n\n\n    if not request.args:\n        session.flash="No informo pedido a editar"\n        redirect(URL("pedido"))\n\n    ped = db(db.sale.id==request.args[0]).select()\n    if not ped:\n        session.flash="El pedido no existe"\n        redirect(URL("pedido"))\n        \n    pedido = ped[0]\n    \n    db.sale.id.readable = False\n    db.sale.id.writable = False\n   \n#    if auth.has_membership (group_id=2) or auth.has_membership (group_id=5):\n    form = SQLFORM(db.sale, pedido,\n                    deletable=True,\n                    fields=[\n                    \'buyer\',\n                    \'product\',\n  \n                      "quantity",\n                                     "price",\n\n"catalogar_pedido",\n\n\n\n"shipped",\n"estado_pedido",\n     \n"shipping_address",\n "shipping_city",\n  "shipping_state",\n"shipping_zip_code",\n\n"tracking_number",\n"puerta_partida",\n \n"asignar_transporte",\n  \n"asignar_chofer",\n\n                    ],\n\n                    submit_button=\'Modificar\')\n\n    if form.accepts(request.vars, session):\n            session.flash = "Pedido modificado"\n            redirect(URL(\'pedido\'))\n    elif form.errors:\n            response.flash = "Hubo errores"\n    else:\n            response.flash = "Modifique el pedido"\n\n    return {\'form\': form,\'pedido\': pedido}\n\n############################################################################################################\n    \ndef imprimir_pedido():\n  \n\n    pedido_id =request.args[0]\n    # Busca el pedido para mostrarlo\n    pedido = db(db.sale.id==pedido_id,db.sale.product==pedido_id).select()[0]\n     \n    cliente = db(db.auth_user.id==pedido.buyer).select()[0]\n    chofer = db(db.chofer.id).select()[0]\n  \n    localidad_destino = db(db.sale.shipping_city==pedido.shipping_city).select()[0]\n\n    producto = db(db.articulo.nombre).select()[0]\n\n    cantidad = db(db.sale.quantity==pedido.quantity).select()[0]\n    return dict(\n    pedido=pedido,\n    cliente=cliente,\n    chofer=chofer,\n    localidad_destino= localidad_destino,\n    producto=producto,\n    cantidad=cantidad\n     )\ndef documentacion():\n    lista_pedidos = db\n    (db.sale.id>0).select(\n    db.sale.id,   \n    db.sale.estado_pedido,\n\n    db.sale.shipping_city,    \n    orderby=db.sale.estado_pedido,)\n    return dict(lista_pedidos=lista_pedidos)\ndef imprimir_remito():\n    pedido_id =request.args[0]\n    # Busca el pedido para mostrarlo\n    pedido = db(db.sale.id==pedido_id,db.sale.product==pedido_id).select()[0]\n    cliente = db(db.auth_user.id==pedido.buyer).select()[0]\n    chofer = db(db.chofer.id).select()[0]  \n    localidad_destino = db(db.sale.shipping_city==pedido.shipping_city).select()[0]\n    producto = db(db.articulo.nombre).select()[0]\n    cantidad = db(db.sale.quantity==pedido.quantity).select()[0]\n    return dict(\n    pedido=pedido,\n    cliente=cliente,\n    chofer=chofer,\n    localidad_destino= localidad_destino,\n    producto=producto,\n    cantidad=cantidad\n     )\n\n@auth.requires_membership(role=\'Operador\')\ndef user():\n    return dict(form=auth())\n\n############################################################################################################\n\n\n\n############################################################################################################\n\n@auth.requires_membership(role=\'Cliente\')\ndef call():\n    session.forget()\n    return service()\n\nresponse._vars=response._caller(pedido)\n'
p7
sS'snapshot'
p8
(dp9
S'exception'
p10
(dp11
S'__hash__'
p12
S"<method-wrapper '__hash__' of exceptions.AttributeError object>"
p13
sS'__setattr__'
p14
S"<method-wrapper '__setattr__' of exceptions.AttributeError object>"
p15
sS'__reduce_ex__'
p16
S'<built-in method __reduce_ex__ of exceptions.AttributeError object>'
p17
sS'__getslice__'
p18
S"<method-wrapper '__getslice__' of exceptions.AttributeError object>"
p19
sS'__getitem__'
p20
S"<method-wrapper '__getitem__' of exceptions.AttributeError object>"
p21
sS'__setstate__'
p22
S'<built-in method __setstate__ of exceptions.AttributeError object>'
p23
sS'__reduce__'
p24
S'<built-in method __reduce__ of exceptions.AttributeError object>'
p25
sS'__str__'
p26
S"<method-wrapper '__str__' of exceptions.AttributeError object>"
p27
sS'__format__'
p28
S'<built-in method __format__ of exceptions.AttributeError object>'
p29
sS'__getattribute__'
p30
S"<method-wrapper '__getattribute__' of exceptions.AttributeError object>"
p31
sS'__class__'
p32
S"<type 'exceptions.AttributeError'>"
p33
sS'__unicode__'
p34
S'<built-in method __unicode__ of exceptions.AttributeError object>'
p35
sS'__delattr__'
p36
S"<method-wrapper '__delattr__' of exceptions.AttributeError object>"
p37
sS'__subclasshook__'
p38
S'<built-in method __subclasshook__ of type object>'
p39
sS'__repr__'
p40
S"<method-wrapper '__repr__' of exceptions.AttributeError object>"
p41
sS'args'
p42
S'("\'Table\' object has no attribute \'nombre\'",)'
p43
sS'__dict__'
p44
S'{}'
p45
sS'__sizeof__'
p46
S'<built-in method __sizeof__ of exceptions.AttributeError object>'
p47
sS'__doc__'
p48
S"'Attribute not found.'"
p49
sS'__init__'
p50
S"<method-wrapper '__init__' of exceptions.AttributeError object>"
p51
sS'__new__'
p52
S'<built-in method __new__ of type object>'
p53
ssS'evalue'
p54
S"'Table' object has no attribute 'nombre'"
p55
sS'request'
p56
cgluon.html
XML_unpickle
p57
(S's@[\x00\x00<div><table><tr><td style="font-weight:bold;vertical-align:top;">ajax</td><td style="vertical-align:top;">:</td><td><div>False</div></td></tr><tr><td style="font-weight:bold;vertical-align:top;">application</td><td style="vertical-align:top;">:</td><td><div>FINAL</div></td></tr><tr><td style="font-weight:bold;vertical-align:top;">args</td><td style="vertical-align:top;">:</td><td><div><table></table></div></td></tr><tr><td style="font-weight:bold;vertical-align:top;">cid</td><td style="vertical-align:top;">:</td><td><div>None</div></td></tr><tr><td style="font-weight:bold;vertical-align:top;">client</td><td style="vertical-align:top;">:</td><td><div>127.0.0.1</div></td></tr><tr><td style="font-weight:bold;vertical-align:top;">controller</td><td style="vertical-align:top;">:</td><td><div>pedido</div></td></tr><tr><td style="font-weight:bold;vertical-align:top;">cookies</td><td style="vertical-align:top;">:</td><td><div><table><tr><td style="font-weight:bold;vertical-align:top;">session_id_admin</td><td style="vertical-align:top;">:</td><td><div>127.0.0.1-a23e7713-67d5-4aac-a2cc-fe4234fff326<table><tr><td style="font-weight:bold;vertical-align:top;">comment</td><td style="vertical-align:top;">:</td><td><div></div></td></tr><tr><td style="font-weight:bold;vertical-align:top;">domain</td><td style="vertical-align:top;">:</td><td><div></div></td></tr><tr><td style="font-weight:bold;vertical-align:top;">expires</td><td style="vertical-align:top;">:</td><td><div></div></td></tr><tr><td style="font-weight:bold;vertical-align:top;">httponly</td><td style="vertical-align:top;">:</td><td><div></div></td></tr><tr><td style="font-weight:bold;vertical-align:top;">max-age</td><td style="vertical-align:top;">:</td><td><div></div></td></tr><tr><td style="font-weight:bold;vertical-align:top;">path</td><td style="vertical-align:top;">:</td><td><div></div></td></tr><tr><td style="font-weight:bold;vertical-align:top;">secure</td><td style="vertical-align:top;">:</td><td><div></div></td></tr><tr><td style="font-weight:bold;vertical-align:top;">version</td><td style="vertical-align:top;">:</td><td><div></div></td></tr></table></div></td></tr><tr><td style="font-weight:bold;vertical-align:top;">session_id_final</td><td style="vertical-align:top;">:</td><td><div>127.0.0.1-eae12f5c-4d21-4ad7-a8e8-8294737762a6<table><tr><td style="font-weight:bold;vertical-align:top;">comment</td><td style="vertical-align:top;">:</td><td><div></div></td></tr><tr><td style="font-weight:bold;vertical-align:top;">domain</td><td style="vertical-align:top;">:</td><td><div></div></td></tr><tr><td style="font-weight:bold;vertical-align:top;">expires</td><td style="vertical-align:top;">:</td><td><div></div></td></tr><tr><td style="font-weight:bold;vertical-align:top;">httponly</td><td style="vertical-align:top;">:</td><td><div></div></td></tr><tr><td style="font-weight:bold;vertical-align:top;">max-age</td><td style="vertical-align:top;">:</td><td><div></div></td></tr><tr><td style="font-weight:bold;vertical-align:top;">path</td><td style="vertical-align:top;">:</td><td><div></div></td></tr><tr><td style="font-weight:bold;vertical-align:top;">secure</td><td style="vertical-align:top;">:</td><td><div></div></td></tr><tr><td style="font-weight:bold;vertical-align:top;">version</td><td style="vertical-align:top;">:</td><td><div></div></td></tr></table></div></td></tr><tr><td style="font-weight:bold;vertical-align:top;">session_id_welcome</td><td style="vertical-align:top;">:</td><td><div>127.0.0.1-fb86593a-0375-4b61-927b-97bed9dcdf92<table><tr><td style="font-weight:bold;vertical-align:top;">comment</td><td style="vertical-align:top;">:</td><td><div></div></td></tr><tr><td style="font-weight:bold;vertical-align:top;">domain</td><td style="vertical-align:top;">:</td><td><div></div></td></tr><tr><td style="font-weight:bold;vertical-align:top;">expires</td><td style="vertical-align:top;">:</td><td><div></div></td></tr><tr><td style="font-weight:bold;vertical-align:top;">httponly</td><td style="vertical-align:top;">:</td><td><div></div></td></tr><tr><td style="font-weight:bold;vertical-align:top;">max-age</td><td style="vertical-align:top;">:</td><td><div></div></td></tr><tr><td style="font-weight:bold;vertical-align:top;">path</td><td style="vertical-align:top;">:</td><td><div></div></td></tr><tr><td style="font-weight:bold;vertical-align:top;">secure</td><td style="vertical-align:top;">:</td><td><div></div></td></tr><tr><td style="font-weight:bold;vertical-align:top;">version</td><td style="vertical-align:top;">:</td><td><div></div></td></tr></table></div></td></tr></table></div></td></tr><tr><td style="font-weight:bold;vertical-align:top;">env</td><td style="vertical-align:top;">:</td><td><div><table><tr><td style="font-weight:bold;vertical-align:top;">HTTP_ACCEPT</td><td style="vertical-align:top;">:</td><td><div>text/html,application/xhtml+xml,application/xml;q=0.9,image/webp,*/*;q=0.8</div></td></tr><tr><td style="font-weight:bold;vertical-align:top;">HTTP_ACCEPT_ENCODING</td><td style="vertical-align:top;">:</td><td><div>gzip,deflate,sdch</div></td></tr><tr><td style="font-weight:bold;vertical-align:top;">HTTP_ACCEPT_LANGUAGE</td><td style="vertical-align:top;">:</td><td><div>es-ES,es;q=0.8</div></td></tr><tr><td style="font-weight:bold;vertical-align:top;">HTTP_CONNECTION</td><td style="vertical-align:top;">:</td><td><div>keep-alive</div></td></tr><tr><td style="font-weight:bold;vertical-align:top;">HTTP_COOKIE</td><td style="vertical-align:top;">:</td><td><div>session_id_welcome=127.0.0.1-fb86593a-0375-4b61-927b-97bed9dcdf92; session_id_final=127.0.0.1-eae12f5c-4d21-4ad7-a8e8-8294737762a6; session_id_admin=127.0.0.1-a23e7713-67d5-4aac-a2cc-fe4234fff326</div></td></tr><tr><td style="font-weight:bold;vertical-align:top;">HTTP_HOST</td><td style="vertical-align:top;">:</td><td><div>127.0.0.1:8000</div></td></tr><tr><td style="font-weight:bold;vertical-align:top;">HTTP_REFERER</td><td style="vertical-align:top;">:</td><td><div>http://127.0.0.1:8000/admin/default/design/FINAL</div></td></tr><tr><td style="font-weight:bold;vertical-align:top;">HTTP_USER_AGENT</td><td style="vertical-align:top;">:</td><td><div>Mozilla/5.0 (Windows NT 6.1) AppleWebKit/537.36 (KHTML, like Gecko) Chrome/32.0.1700.107 Safari/537.36</div></td></tr><tr><td style="font-weight:bold;vertical-align:top;">PATH_INFO</td><td style="vertical-align:top;">:</td><td><div>/FINAL/pedido/pedido</div></td></tr><tr><td style="font-weight:bold;vertical-align:top;">QUERY_STRING</td><td style="vertical-align:top;">:</td><td><div></div></td></tr><tr><td style="font-weight:bold;vertical-align:top;">REMOTE_ADDR</td><td style="vertical-align:top;">:</td><td><div>127.0.0.1</div></td></tr><tr><td style="font-weight:bold;vertical-align:top;">REMOTE_PORT</td><td style="vertical-align:top;">:</td><td><div>51148</div></td></tr><tr><td style="font-weight:bold;vertical-align:top;">REQUEST_METHOD</td><td style="vertical-align:top;">:</td><td><div>GET</div></td></tr><tr><td style="font-weight:bold;vertical-align:top;">SCRIPT_NAME</td><td style="vertical-align:top;">:</td><td><div></div></td></tr><tr><td style="font-weight:bold;vertical-align:top;">SERVER_NAME</td><td style="vertical-align:top;">:</td><td><div>angel-PC</div></td></tr><tr><td style="font-weight:bold;vertical-align:top;">SERVER_PORT</td><td style="vertical-align:top;">:</td><td><div>8000</div></td></tr><tr><td style="font-weight:bold;vertical-align:top;">SERVER_PROTOCOL</td><td style="vertical-align:top;">:</td><td><div>HTTP/1.1</div></td></tr><tr><td style="font-weight:bold;vertical-align:top;">SERVER_SOFTWARE</td><td style="vertical-align:top;">:</td><td><div>Rocket 1.2.6</div></td></tr><tr><td style="font-weight:bold;vertical-align:top;">app_folders</td><td style="vertical-align:top;">:</td><td><div>set([&#x27;C:\\\\Users\\\\angel\\\\Desktop\\\\sql\\\\web2py\\\\applications\\\\admin\\\\&#x27;, &#x27;C:\\\\Users\\\\angel\\\\Desktop\\\\sql\\\\web2py\\\\applications\\\\welcome\\\\&#x27;, &#x27;C:\\\\Users\\\\angel\\\\Desktop\\\\sql\\\\web2py\\\\applications\\\\FINAL\\\\&#x27;])</div></td></tr><tr><td style="font-weight:bold;vertical-align:top;">applications_parent</td><td style="vertical-align:top;">:</td><td><div>C:\\Users\\angel\\Desktop\\sql\\web2py</div></td></tr><tr><td style="font-weight:bold;vertical-align:top;">cmd_args</td><td style="vertical-align:top;">:</td><td><div><table></table></div></td></tr><tr><td style="font-weight:bold;vertical-align:top;">cmd_options</td><td style="vertical-align:top;">:</td><td><div>&lt;Values at 0x2813da0: {&#x27;verbose&#x27;: False, &#x27;ip&#x27;: &#x27;127.0.0.1&#x27;, &#x27;debuglevel&#x27;: 30, &#x27;with_scheduler&#x27;: False, &#x27;ips&#x27;: [&#x27;fe80::1560:f4ed:1534:ba1e%12&#x27;, &#x27;192.168.1.37&#x27;], &#x27;shutdown_timeout&#x27;: 5, &#x27;taskbar&#x27;: False, &#x27;with_coverage&#x27;: False, &#x27;port&#x27;: 8000, &#x27;maxthreads&#x27;: None, &#x27;softcron&#x27;: False, &#x27;server_name&#x27;: &#x27;angel-PC&#x27;, &#x27;bpython&#x27;: False, &#x27;nogui&#x27;: False, &#x27;pid_filename&#x27;: &#x27;httpserver.pid&#x27;, &#x27;extcron&#x27;: False, &#x27;runcron&#x27;: False, &#x27;run_system_tests&#x27;: False, &#x27;test&#x27;: None, &#x27;folder&#x27;: &#x27;C:\\\\Users\\\\angel\\\\Desktop\\\\sql\\\\web2py&#x27;, &#x27;config&#x27;: &#x27;&#x27;, &#x27;minthreads&#x27;: None, &#x27;shell&#x27;: None, &#x27;run&#x27;: &#x27;&#x27;, &#x27;log_filename&#x27;: &#x27;httpserver.log&#x27;, &#x27;profiler_dir&#x27;: None, &#x27;args&#x27;: [&#x27;&#x27;], &#x27;socket_timeout&#x27;: 5, &#x27;ssl_ca_certificate&#x27;: None, &#x27;scheduler&#x27;: None, &#x27;interfaces&#x27;: None, &#x27;ssl_private_key&#x27;: &#x27;&#x27;, &#x27;scheduler_groups&#x27;: None, &#x27;password&#x27;: &#x27;&lt;ask&gt;&#x27;, &#x27;request_queue_size&#x27;: 5, &#x27;ssl_certificate&#x27;: &#x27;&#x27;, &#x27;cronjob&#x27;: False, &#x27;numthreads&#x27;: None, &#x27;quiet&#x27;: False, &#x27;import_models&#x27;: False, &#x27;timeout&#x27;: 10, &#x27;plain&#x27;: False, &#x27;nobanner&#x27;: False}&gt;</div></td></tr><tr><td style="font-weight:bold;vertical-align:top;">db_sessions</td><td style="vertical-align:top;">:</td><td><div>set([])</div></td></tr><tr><td style="font-weight:bold;vertical-align:top;">debugging</td><td style="vertical-align:top;">:</td><td><div>True</div></td></tr><tr><td style="font-weight:bold;vertical-align:top;">gluon_parent</td><td style="vertical-align:top;">:</td><td><div>C:\\Users\\angel\\Desktop\\sql\\web2py</div></td></tr><tr><td style="font-weight:bold;vertical-align:top;">http_accept</td><td style="vertical-align:top;">:</td><td><div>text/html,application/xhtml+xml,application/xml;q=0.9,image/webp,*/*;q=0.8</div></td></tr><tr><td style="font-weight:bold;vertical-align:top;">http_accept_encoding</td><td style="vertical-align:top;">:</td><td><div>gzip,deflate,sdch</div></td></tr><tr><td style="font-weight:bold;vertical-align:top;">http_accept_language</td><td style="vertical-align:top;">:</td><td><div>es-ES,es;q=0.8</div></td></tr><tr><td style="font-weight:bold;vertical-align:top;">http_connection</td><td style="vertical-align:top;">:</td><td><div>keep-alive</div></td></tr><tr><td style="font-weight:bold;vertical-align:top;">http_cookie</td><td style="vertical-align:top;">:</td><td><div>session_id_welcome=127.0.0.1-fb86593a-0375-4b61-927b-97bed9dcdf92; session_id_final=127.0.0.1-eae12f5c-4d21-4ad7-a8e8-8294737762a6; session_id_admin=127.0.0.1-a23e7713-67d5-4aac-a2cc-fe4234fff326</div></td></tr><tr><td style="font-weight:bold;vertical-align:top;">http_host</td><td style="vertical-align:top;">:</td><td><div>127.0.0.1:8000</div></td></tr><tr><td style="font-weight:bold;vertical-align:top;">http_referer</td><td style="vertical-align:top;">:</td><td><div>http://127.0.0.1:8000/admin/default/design/FINAL</div></td></tr><tr><td style="font-weight:bold;vertical-align:top;">http_user_agent</td><td style="vertical-align:top;">:</td><td><div>Mozilla/5.0 (Windows NT 6.1) AppleWebKit/537.36 (KHTML, like Gecko) Chrome/32.0.1700.107 Safari/537.36</div></td></tr><tr><td style="font-weight:bold;vertical-align:top;">is_jython</td><td style="vertical-align:top;">:</td><td><div>False</div></td></tr><tr><td style="font-weight:bold;vertical-align:top;">is_pypy</td><td style="vertical-align:top;">:</td><td><div>False</div></td></tr><tr><td style="font-weight:bold;vertical-align:top;">is_source</td><td style="vertical-align:top;">:</td><td><div>False</div></td></tr><tr><td style="font-weight:bold;vertical-align:top;">local_hosts</td><td style="vertical-align:top;">:</td><td><div><table><tr><td><div>192.168.1.37</div></td></tr><tr><td><div>fe80::1560:f4ed:1534:ba1e%12</div></td></tr><tr><td><div>::ffff:127.0.0.1</div></td></tr><tr><td><div>::1</div></td></tr><tr><td><div>127.0.0.1</div></td></tr><tr><td><div>angel-PC</div></td></tr></table></div></td></tr><tr><td style="font-weight:bold;vertical-align:top;">path_info</td><td style="vertical-align:top;">:</td><td><div>/FINAL/pedido/pedido</div></td></tr><tr><td style="font-weight:bold;vertical-align:top;">query_string</td><td style="vertical-align:top;">:</td><td><div></div></td></tr><tr><td style="font-weight:bold;vertical-align:top;">remote_addr</td><td style="vertical-align:top;">:</td><td><div>127.0.0.1</div></td></tr><tr><td style="font-weight:bold;vertical-align:top;">remote_port</td><td style="vertical-align:top;">:</td><td><div>51148</div></td></tr><tr><td style="font-weight:bold;vertical-align:top;">request_method</td><td style="vertical-align:top;">:</td><td><div>GET</div></td></tr><tr><td style="font-weight:bold;vertical-align:top;">request_uri</td><td style="vertical-align:top;">:</td><td><div>/FINAL/pedido/pedido</div></td></tr><tr><td style="font-weight:bold;vertical-align:top;">script_name</td><td style="vertical-align:top;">:</td><td><div></div></td></tr><tr><td style="font-weight:bold;vertical-align:top;">server_name</td><td style="vertical-align:top;">:</td><td><div>angel-PC</div></td></tr><tr><td style="font-weight:bold;vertical-align:top;">server_port</td><td style="vertical-align:top;">:</td><td><div>8000</div></td></tr><tr><td style="font-weight:bold;vertical-align:top;">server_protocol</td><td style="vertical-align:top;">:</td><td><div>HTTP/1.1</div></td></tr><tr><td style="font-weight:bold;vertical-align:top;">server_software</td><td style="vertical-align:top;">:</td><td><div>Rocket 1.2.6</div></td></tr><tr><td style="font-weight:bold;vertical-align:top;">web2py_path</td><td style="vertical-align:top;">:</td><td><div>C:\\Users\\angel\\Desktop\\sql\\web2py</div></td></tr><tr><td style="font-weight:bold;vertical-align:top;">web2py_version</td><td style="vertical-align:top;">:</td><td><div>2.9.5-stable+timestamp.2014.03.20.22.57.13</div></td></tr><tr><td style="font-weight:bold;vertical-align:top;">wsgi.errors</td><td style="vertical-align:top;">:</td><td><div>&lt;open file &#x27;&lt;stderr&gt;&#x27;, mode &#x27;w&#x27; at 0x012360D0&gt;</div></td></tr><tr><td style="font-weight:bold;vertical-align:top;">wsgi.file_wrapper</td><td style="vertical-align:top;">:</td><td><div>&lt;class wsgiref.util.FileWrapper at 0x0193DAB0&gt;</div></td></tr><tr><td style="font-weight:bold;vertical-align:top;">wsgi.input</td><td style="vertical-align:top;">:</td><td><div>&lt;socket._fileobject object at 0x06EE5B30&gt;</div></td></tr><tr><td style="font-weight:bold;vertical-align:top;">wsgi.multiprocess</td><td style="vertical-align:top;">:</td><td><div>False</div></td></tr><tr><td style="font-weight:bold;vertical-align:top;">wsgi.multithread</td><td style="vertical-align:top;">:</td><td><div>True</div></td></tr><tr><td style="font-weight:bold;vertical-align:top;">wsgi.run_once</td><td style="vertical-align:top;">:</td><td><div>False</div></td></tr><tr><td style="font-weight:bold;vertical-align:top;">wsgi.url_scheme</td><td style="vertical-align:top;">:</td><td><div>http</div></td></tr><tr><td style="font-weight:bold;vertical-align:top;">wsgi.version</td><td style="vertical-align:top;">:</td><td><div><table><tr><td><div>1</div></td></tr><tr><td><div>0</div></td></tr></table></div></td></tr><tr><td style="font-weight:bold;vertical-align:top;">wsgi_errors</td><td style="vertical-align:top;">:</td><td><div>&lt;open file &#x27;&lt;stderr&gt;&#x27;, mode &#x27;w&#x27; at 0x012360D0&gt;</div></td></tr><tr><td style="font-weight:bold;vertical-align:top;">wsgi_file_wrapper</td><td style="vertical-align:top;">:</td><td><div>&lt;class wsgiref.util.FileWrapper at 0x0193DAB0&gt;</div></td></tr><tr><td style="font-weight:bold;vertical-align:top;">wsgi_input</td><td style="vertical-align:top;">:</td><td><div>&lt;socket._fileobject object at 0x06EE5B30&gt;</div></td></tr><tr><td style="font-weight:bold;vertical-align:top;">wsgi_multiprocess</td><td style="vertical-align:top;">:</td><td><div>False</div></td></tr><tr><td style="font-weight:bold;vertical-align:top;">wsgi_multithread</td><td style="vertical-align:top;">:</td><td><div>True</div></td></tr><tr><td style="font-weight:bold;vertical-align:top;">wsgi_run_once</td><td style="vertical-align:top;">:</td><td><div>False</div></td></tr><tr><td style="font-weight:bold;vertical-align:top;">wsgi_url_scheme</td><td style="vertical-align:top;">:</td><td><div>http</div></td></tr><tr><td style="font-weight:bold;vertical-align:top;">wsgi_version</td><td style="vertical-align:top;">:</td><td><div><table><tr><td><div>1</div></td></tr><tr><td><div>0</div></td></tr></table></div></td></tr></table></div></td></tr><tr><td style="font-weight:bold;vertical-align:top;">extension</td><td style="vertical-align:top;">:</td><td><div>html</div></td></tr><tr><td style="font-weight:bold;vertical-align:top;">folder</td><td style="vertical-align:top;">:</td><td><div>C:\\Users\\angel\\Desktop\\sql\\web2py\\applications\\FINAL\\</div></td></tr><tr><td style="font-weight:bold;vertical-align:top;">function</td><td style="vertical-align:top;">:</td><td><div>pedido</div></td></tr><tr><td style="font-weight:bold;vertical-align:top;">global_settings</td><td style="vertical-align:top;">:</td><td><div><table><tr><td style="font-weight:bold;vertical-align:top;">app_folders</td><td style="vertical-align:top;">:</td><td><div>set([&#x27;C:\\\\Users\\\\angel\\\\Desktop\\\\sql\\\\web2py\\\\applications\\\\admin\\\\&#x27;, &#x27;C:\\\\Users\\\\angel\\\\Desktop\\\\sql\\\\web2py\\\\applications\\\\welcome\\\\&#x27;, &#x27;C:\\\\Users\\\\angel\\\\Desktop\\\\sql\\\\web2py\\\\applications\\\\FINAL\\\\&#x27;])</div></td></tr><tr><td style="font-weight:bold;vertical-align:top;">applications_parent</td><td style="vertical-align:top;">:</td><td><div>C:\\Users\\angel\\Desktop\\sql\\web2py</div></td></tr><tr><td style="font-weight:bold;vertical-align:top;">cmd_args</td><td style="vertical-align:top;">:</td><td><div><table></table></div></td></tr><tr><td style="font-weight:bold;vertical-align:top;">cmd_options</td><td style="vertical-align:top;">:</td><td><div>&lt;Values at 0x2813da0: {&#x27;verbose&#x27;: False, &#x27;ip&#x27;: &#x27;127.0.0.1&#x27;, &#x27;debuglevel&#x27;: 30, &#x27;with_scheduler&#x27;: False, &#x27;ips&#x27;: [&#x27;fe80::1560:f4ed:1534:ba1e%12&#x27;, &#x27;192.168.1.37&#x27;], &#x27;shutdown_timeout&#x27;: 5, &#x27;taskbar&#x27;: False, &#x27;with_coverage&#x27;: False, &#x27;port&#x27;: 8000, &#x27;maxthreads&#x27;: None, &#x27;softcron&#x27;: False, &#x27;server_name&#x27;: &#x27;angel-PC&#x27;, &#x27;bpython&#x27;: False, &#x27;nogui&#x27;: False, &#x27;pid_filename&#x27;: &#x27;httpserver.pid&#x27;, &#x27;extcron&#x27;: False, &#x27;runcron&#x27;: False, &#x27;run_system_tests&#x27;: False, &#x27;test&#x27;: None, &#x27;folder&#x27;: &#x27;C:\\\\Users\\\\angel\\\\Desktop\\\\sql\\\\web2py&#x27;, &#x27;config&#x27;: &#x27;&#x27;, &#x27;minthreads&#x27;: None, &#x27;shell&#x27;: None, &#x27;run&#x27;: &#x27;&#x27;, &#x27;log_filename&#x27;: &#x27;httpserver.log&#x27;, &#x27;profiler_dir&#x27;: None, &#x27;args&#x27;: [&#x27;&#x27;], &#x27;socket_timeout&#x27;: 5, &#x27;ssl_ca_certificate&#x27;: None, &#x27;scheduler&#x27;: None, &#x27;interfaces&#x27;: None, &#x27;ssl_private_key&#x27;: &#x27;&#x27;, &#x27;scheduler_groups&#x27;: None, &#x27;password&#x27;: &#x27;&lt;ask&gt;&#x27;, &#x27;request_queue_size&#x27;: 5, &#x27;ssl_certificate&#x27;: &#x27;&#x27;, &#x27;cronjob&#x27;: False, &#x27;numthreads&#x27;: None, &#x27;quiet&#x27;: False, &#x27;import_models&#x27;: False, &#x27;timeout&#x27;: 10, &#x27;plain&#x27;: False, &#x27;nobanner&#x27;: False}&gt;</div></td></tr><tr><td style="font-weight:bold;vertical-align:top;">db_sessions</td><td style="vertical-align:top;">:</td><td><div>set([])</div></td></tr><tr><td style="font-weight:bold;vertical-align:top;">debugging</td><td style="vertical-align:top;">:</td><td><div>True</div></td></tr><tr><td style="font-weight:bold;vertical-align:top;">gluon_parent</td><td style="vertical-align:top;">:</td><td><div>C:\\Users\\angel\\Desktop\\sql\\web2py</div></td></tr><tr><td style="font-weight:bold;vertical-align:top;">is_jython</td><td style="vertical-align:top;">:</td><td><div>False</div></td></tr><tr><td style="font-weight:bold;vertical-align:top;">is_pypy</td><td style="vertical-align:top;">:</td><td><div>False</div></td></tr><tr><td style="font-weight:bold;vertical-align:top;">is_source</td><td style="vertical-align:top;">:</td><td><div>False</div></td></tr><tr><td style="font-weight:bold;vertical-align:top;">local_hosts</td><td style="vertical-align:top;">:</td><td><div><table><tr><td><div>192.168.1.37</div></td></tr><tr><td><div>fe80::1560:f4ed:1534:ba1e%12</div></td></tr><tr><td><div>::ffff:127.0.0.1</div></td></tr><tr><td><div>::1</div></td></tr><tr><td><div>127.0.0.1</div></td></tr><tr><td><div>angel-PC</div></td></tr></table></div></td></tr><tr><td style="font-weight:bold;vertical-align:top;">web2py_version</td><td style="vertical-align:top;">:</td><td><div>2.9.5-stable+timestamp.2014.03.20.22.57.13</div></td></tr></table></div></td></tr><tr><td style="font-weight:bold;vertical-align:top;">is_https</td><td style="vertical-align:top;">:</td><td><div>False</div></td></tr><tr><td style="font-weight:bold;vertical-align:top;">is_local</td><td style="vertical-align:top;">:</td><td><div>True</div></td></tr><tr><td style="font-weight:bold;vertical-align:top;">is_restful</td><td style="vertical-align:top;">:</td><td><div>False</div></td></tr><tr><td style="font-weight:bold;vertical-align:top;">now</td><td style="vertical-align:top;">:</td><td><div>datetime.datetime(2015, 1, 15, 1, 4, 33, 904000)</div></td></tr><tr><td style="font-weight:bold;vertical-align:top;">raw_args</td><td style="vertical-align:top;">:</td><td><div></div></td></tr><tr><td style="font-weight:bold;vertical-align:top;">raw_extension</td><td style="vertical-align:top;">:</td><td><div>None</div></td></tr><tr><td style="font-weight:bold;vertical-align:top;">url</td><td style="vertical-align:top;">:</td><td><div>/FINAL/pedido/pedido</div></td></tr><tr><td style="font-weight:bold;vertical-align:top;">utcnow</td><td style="vertical-align:top;">:</td><td><div>datetime.datetime(2015, 1, 15, 3, 4, 33, 904000)</div></td></tr><tr><td style="font-weight:bold;vertical-align:top;">uuid</td><td style="vertical-align:top;">:</td><td><div>FINAL/127.0.0.1.2015-01-15.01-04-33.e24b3403-4501-48df-bee7-926fc9efe5af</div></td></tr><tr><td style="font-weight:bold;vertical-align:top;">wsgi</td><td style="vertical-align:top;">:</td><td><div>&lt;gluon.main.LazyWSGI object at 0x073DED30&gt;</div></td></tr></table></div>'
tRp58
sS'frames'
p59
(lp60
(dp61
S'file'
p62
S'C:\\home\\mdipierro\\make_web2py\\web2py\\gluon\\restricted.py'
p63
sS'dump'
p64
(dp65
sS'lnum'
p66
I220
sS'lines'
p67
(dp68
sS'call'
p69
S"(code='def index():\\n    if not auth.user_id:\\n        re...rvice()\\n\\nresponse._vars=response._caller(pedido)\\n', environment={'A': <class 'gluon.html.A'>, 'ACTIVITY_CATEGORIES': ['acad\\xc3\\xa9mico', 'caso de estudio', 'ciencia', 'cli', 'comunidad', 'core', 'educaci\\xc3\\xb3n', 'fomento', 'gui', 'herramientas', 'juegos', 'lenguaje', 'moviles', 'py3k', 'redes', 'seguridad', 'testing', 'web'], 'ACTIVITY_DURATION': {'poster': 0, 'talk': 45, 'tutorial': 120}, 'ACTIVITY_LEVELS': ('Beginner', 'Intermediate', 'Advanced'), 'ACTIVITY_ROOMS': {1: '5-6-7-8', 2: '9-10', 3: '13+14', 4: '31', 5: '35', 6: '32'}, 'ACTIVITY_SHOW_DESCRIPTION': False, 'ACTIVITY_TYPES': ('keynote', 'panel', 'plenary', 'tutorial', 'talk', 'poster', 'startup', 'stand', 'summit', 'open-space', 'social', 'break', 'lightning talk'), 'ANY_OF': <class 'gluon.validators.ANY_OF'>, 'ATTENDEE_TYPES': (('gratis', <lazyT 'Gratuito, $0'>),), 'ATTENDEE_TYPE_COST': {None: 0.0, 'gratis': 0.0}, ...}, layer=r'C:\\Users\\angel\\Desktop\\sql\\web2py\\applications\\FINAL\\controllers/pedido.py')"
p70
sS'func'
p71
S'restricted'
p72
sa(dp73
g62
S'C:\\Users\\angel\\Desktop\\sql\\web2py\\applications\\FINAL\\controllers\\pedido.py'
p74
sg64
(dp75
sg66
I587
sg67
(dp76
I576
S'############################################################################################################'
p77
sI577
S''
sI578
S''
sI579
S''
sI580
S'############################################################################################################'
p78
sI581
S''
sI582
S"@auth.requires_membership(role='Cliente')"
p79
sI583
S'def call():'
p80
sI584
S'    session.forget()'
p81
sI585
S'    return service()'
p82
ssg69
S'()'
p83
sg71
S'<module>'
p84
sa(dp85
g62
S'C:\\home\\mdipierro\\make_web2py\\web2py\\gluon\\globals.py'
p86
sg64
(dp87
sg66
I385
sg67
(dp88
sg69
S'(f=<function pedido>)'
p89
sg71
S'<lambda>'
p90
sa(dp91
g62
S'C:\\Users\\angel\\Desktop\\sql\\web2py\\applications\\FINAL\\controllers\\pedido.py'
p92
sg64
(dp93
S'global db'
p94
S'<DAL uri="sqlite://storage.sqlite">'
p95
sS'db.sale'
p96
S'<Table sale (id,invoice,creditcard,buyer,product...e,created_on,created_by,modified_on,modified_by)>'
p97
sS'db.sale.nombre'
p98
S'undefined'
p99
ssg66
I39
sg67
(dp100
I34
S'#    (db.sale.product!=None) &'
p101
sI35
S'    (db.sale.asignar_transporte!=None)'
p102
sI36
S'    ).select('
p103
sI37
S'    db.sale.id,'
p104
sI38
S'    db.sale.fecha_de_pedido,'
p105
sI39
S'    db.sale.nombre,'
p106
sI40
S'    db.sale.estado_pedido,'
p107
sI41
S''
sI42
S'    db.sale.shipping_city,'
p108
sI43
S'    orderby=db.sale.estado_pedido,)'
p109
ssg69
S'()'
p110
sg71
S'pedido'
p111
sa(dp112
g62
S'C:\\home\\mdipierro\\make_web2py\\web2py\\gluon\\dal.py'
p113
sg64
(dp114
sg66
I8912
sg67
(dp115
sg69
S"(self=<Table sale (id,invoice,creditcard,buyer,product...e,created_on,created_by,modified_on,modified_by)>, key='nombre')"
p116
sg71
g20
sasS'pyver'
p117
S'Python 2.7.6: C:\\Users\\angel\\Desktop\\sql\\web2py\\web2py.exe (prefix: C:\\Python27)'
p118
sS'session'
p119
g57
(S's\xa6\x00\x00\x00<div><table><tr><td style="font-weight:bold;vertical-align:top;">cart</td><td style="vertical-align:top;">:</td><td><div><table></table></div></td></tr></table></div>'
tRp120
sS'etype'
p121
S"<type 'exceptions.AttributeError'>"
p122
sS'date'
p123
S'Thu Jan 15 01:04:36 2015'
p124
sS'response'
p125
g57
(S's\x174\x00\x00<div><table><tr><td style="font-weight:bold;vertical-align:top;">body</td><td style="vertical-align:top;">:</td><td><div>&lt;cStringIO.StringO object at 0x07661A80&gt;</div></td></tr><tr><td style="font-weight:bold;vertical-align:top;">cookies</td><td style="vertical-align:top;">:</td><td><div><table><tr><td style="font-weight:bold;vertical-align:top;">session_id_final</td><td style="vertical-align:top;">:</td><td><div>127.0.0.1-eae12f5c-4d21-4ad7-a8e8-8294737762a6<table><tr><td style="font-weight:bold;vertical-align:top;">comment</td><td style="vertical-align:top;">:</td><td><div></div></td></tr><tr><td style="font-weight:bold;vertical-align:top;">domain</td><td style="vertical-align:top;">:</td><td><div></div></td></tr><tr><td style="font-weight:bold;vertical-align:top;">expires</td><td style="vertical-align:top;">:</td><td><div></div></td></tr><tr><td style="font-weight:bold;vertical-align:top;">httponly</td><td style="vertical-align:top;">:</td><td><div></div></td></tr><tr><td style="font-weight:bold;vertical-align:top;">max-age</td><td style="vertical-align:top;">:</td><td><div></div></td></tr><tr><td style="font-weight:bold;vertical-align:top;">path</td><td style="vertical-align:top;">:</td><td><div>/</div></td></tr><tr><td style="font-weight:bold;vertical-align:top;">secure</td><td style="vertical-align:top;">:</td><td><div></div></td></tr><tr><td style="font-weight:bold;vertical-align:top;">version</td><td style="vertical-align:top;">:</td><td><div></div></td></tr></table></div></td></tr></table></div></td></tr><tr><td style="font-weight:bold;vertical-align:top;">delimiters</td><td style="vertical-align:top;">:</td><td><div><table><tr><td><div>{{</div></td></tr><tr><td><div>}}</div></td></tr></table></div></td></tr><tr><td style="font-weight:bold;vertical-align:top;">description</td><td style="vertical-align:top;">:</td><td><div>Powered by web2py</div></td></tr><tr><td style="font-weight:bold;vertical-align:top;">files</td><td style="vertical-align:top;">:</td><td><div><table></table></div></td></tr><tr><td style="font-weight:bold;vertical-align:top;">flash</td><td style="vertical-align:top;">:</td><td><div></div></td></tr><tr><td style="font-weight:bold;vertical-align:top;">footer</td><td style="vertical-align:top;">:</td><td><div>Conference description&lt;b&gt;dates&lt;/b&gt; city (organized by &lt;a href="#"&gt;users group&lt;/a&gt;). &lt;br/&gt;\nMore info: &lt;a href="#"&gt;blog&lt;/a&gt;&amp;nbsp; Contact: &lt;a href="#"&gt;mail address&lt;/a&gt;</div></td></tr><tr><td style="font-weight:bold;vertical-align:top;">generic_patterns</td><td style="vertical-align:top;">:</td><td><div><table></table></div></td></tr><tr><td style="font-weight:bold;vertical-align:top;">google_analytics_id</td><td style="vertical-align:top;">:</td><td><div>None</div></td></tr><tr><td style="font-weight:bold;vertical-align:top;">headers</td><td style="vertical-align:top;">:</td><td><div><table><tr><td style="font-weight:bold;vertical-align:top;">X-Powered-By</td><td style="vertical-align:top;">:</td><td><div>web2py</div></td></tr></table></div></td></tr><tr><td style="font-weight:bold;vertical-align:top;">keywords</td><td style="vertical-align:top;">:</td><td><div>python, free software</div></td></tr><tr><td style="font-weight:bold;vertical-align:top;">menu</td><td style="vertical-align:top;">:</td><td><div><table><tr><td><div><table><tr><td><div>Home</div></td></tr><tr><td><div>False</div></td></tr><tr><td><div>/FINAL/default/index</div></td></tr><tr><td><div><table></table></div></td></tr></table></div></td></tr><tr><td><div><table><tr><td><div><span style="color:yellow">web2py</span></div></td></tr><tr><td><div>False</div></td></tr><tr><td><div>None</div></td></tr><tr><td><div><table><tr><td><div><table><tr><td><div>My Sites</div></td></tr><tr><td><div>False</div></td></tr><tr><td><div>/admin/default/site</div></td></tr></table></div></td></tr><tr><td><div><table><tr><td><div>This App</div></td></tr><tr><td><div>False</div></td></tr><tr><td><div>/admin/default/design/FINAL</div></td></tr><tr><td><div>[(&lt;lazyT &#x27;Controller&#x27;&gt;, False, &#x27;/admin/default/edit/FINAL/controllers/pedido.py&#x27;), (&lt;lazyT &#x27;View&#x27;&gt;, False, &#x27;/admin/default/edit/FINAL/views/pedido/pedido.html&#x27;), (&lt;lazyT &#x27;Layout&#x27;&gt;, False, &#x27;/admin/default/edit/FINAL/views/layout.html&#x27;), (&lt;lazyT &#x27;Stylesheet&#x27;&gt;, False, &#x27;/admin/default/edit/FINAL/static/css/web2py.css&#x27;), (&lt;lazyT &#x27;DB Model&#x27;&gt;, False, &#x27;/admin/default/edit/FINAL/models/db.py&#x27;), (&lt;lazyT &#x27;Menu Model&#x27;&gt;, False, &#x27;/admin/default/edit/FINAL/models/menu.py&#x27;), (&lt;lazyT &#x27;Database&#x27;&gt;, False, &#x27;/FINAL/appadmin/index&#x27;), (&lt;lazyT &#x27;Errors&#x27;&gt;, False, &#x27;/admin/default/errors/FINAL&#x27;), (&lt;lazyT &#x27;About&#x27;&gt;, False, &#x27;/admin/default/about/FINAL&#x27;)]</div></td></tr></table></div></td></tr><tr><td><div><table><tr><td><div>web2py.com</div></td></tr><tr><td><div>False</div></td></tr><tr><td><div>http://www.web2py.com</div></td></tr><tr><td><div>[(&lt;lazyT &#x27;Download&#x27;&gt;, False, &#x27;http://www.web2py.com/examples/default/download&#x27;), (&lt;lazyT &#x27;Support&#x27;&gt;, False, &#x27;http://www.web2py.com/examples/default/support&#x27;), (&lt;lazyT &#x27;Demo&#x27;&gt;, False, &#x27;http://web2py.com/demo_admin&#x27;), (&lt;lazyT &#x27;Quick Examples&#x27;&gt;, False, &#x27;http://web2py.com/examples/default/examples&#x27;), (&lt;lazyT &#x27;FAQ&#x27;&gt;, False, &#x27;http://web2py.com/AlterEgo&#x27;), (&lt;lazyT &#x27;Videos&#x27;&gt;, False, &#x27;http://www.web2py.com/examples/default/videos/&#x27;), (&lt;lazyT &#x27;Free Applications&#x27;&gt;, False, &#x27;http://web2py.com/appliances&#x27;), (&lt;lazyT &#x27;Plugins&#x27;&gt;, False, &#x27;http://web2py.com/plugins&#x27;), (&lt;lazyT &#x27;Layouts&#x27;&gt;, False, &#x27;http://web2py.com/layouts&#x27;), (&lt;lazyT &#x27;Recipes&#x27;&gt;, False, &#x27;http://web2pyslices.com/&#x27;), (&lt;lazyT &#x27;Semantic&#x27;&gt;, False, &#x27;http://web2py.com/semantic&#x27;)]</div></td></tr></table></div></td></tr><tr><td><div><table><tr><td><div>Documentaci\xc3\xb3n</div></td></tr><tr><td><div>False</div></td></tr><tr><td><div>http://www.web2py.com/book</div></td></tr><tr><td><div>[(&lt;lazyT &#x27;Preface&#x27;&gt;, False, &#x27;http://www.web2py.com/book/default/chapter/00&#x27;), (&lt;lazyT &#x27;Introduction&#x27;&gt;, False, &#x27;http://www.web2py.com/book/default/chapter/01&#x27;), (&lt;lazyT &#x27;Python&#x27;&gt;, False, &#x27;http://www.web2py.com/book/default/chapter/02&#x27;), (&lt;lazyT &#x27;Overview&#x27;&gt;, False, &#x27;http://www.web2py.com/book/default/chapter/03&#x27;), (&lt;lazyT &#x27;The Core&#x27;&gt;, False, &#x27;http://www.web2py.com/book/default/chapter/04&#x27;), (&lt;lazyT &#x27;The Views&#x27;&gt;, False, &#x27;http://www.web2py.com/book/default/chapter/05&#x27;), (&lt;lazyT &#x27;Database&#x27;&gt;, False, &#x27;http://www.web2py.com/book/default/chapter/06&#x27;), (&lt;lazyT &#x27;Forms and Validators&#x27;&gt;, False, &#x27;http://www.web2py.com/book/default/chapter/07&#x27;), (&lt;lazyT &#x27;Email and SMS&#x27;&gt;, False, &#x27;http://www.web2py.com/book/default/chapter/08&#x27;), (&lt;lazyT &#x27;Access Control&#x27;&gt;, False, &#x27;http://www.web2py.com/book/default/chapter/09&#x27;), (&lt;lazyT &#x27;Services&#x27;&gt;, False, &#x27;http://www.web2py.com/book/default/chapter/10&#x27;), (&lt;lazyT &#x27;Ajax Recipes&#x27;&gt;, False, &#x27;http://www.web2py.com/book/default/chapter/11&#x27;), (&lt;lazyT &#x27;Components and Plugins&#x27;&gt;, False, &#x27;http://www.web2py.com/book/default/chapter/12&#x27;), (&lt;lazyT &#x27;Deployment Recipes&#x27;&gt;, False, &#x27;http://www.web2py.com/book/default/chapter/13&#x27;), (&lt;lazyT &#x27;Other Recipes&#x27;&gt;, False, &#x27;http://www.web2py.com/book/default/chapter/14&#x27;), (&lt;lazyT &#x27;Buy this book&#x27;&gt;, False, &#x27;http://stores.lulu.com/web2py&#x27;)]</div></td></tr></table></div></td></tr><tr><td><div><table><tr><td><div>Community</div></td></tr><tr><td><div>False</div></td></tr><tr><td><div>None</div></td></tr><tr><td><div>[(&lt;lazyT &#x27;Groups&#x27;&gt;, False, &#x27;http://www.web2py.com/examples/default/usergroups&#x27;), (&lt;lazyT &#x27;Twitter&#x27;&gt;, False, &#x27;http://twitter.com/web2py&#x27;), (&lt;lazyT &#x27;Live Chat&#x27;&gt;, False, &#x27;http://webchat.freenode.net/?channels=web2py&#x27;)]</div></td></tr></table></div></td></tr><tr><td><div><table><tr><td><div>Plugins</div></td></tr><tr><td><div>False</div></td></tr><tr><td><div>None</div></td></tr><tr><td><div>[(&#x27;plugin_wiki&#x27;, False, &#x27;http://web2py.com/examples/default/download&#x27;), (&lt;lazyT &#x27;Other Plugins&#x27;&gt;, False, &#x27;http://web2py.com/plugins&#x27;), (&lt;lazyT &#x27;Layout Plugins&#x27;&gt;, False, &#x27;http://web2py.com/layouts&#x27;)]</div></td></tr></table></div></td></tr></table></div></td></tr></table></div></td></tr></table></div></td></tr><tr><td style="font-weight:bold;vertical-align:top;">meta</td><td style="vertical-align:top;">:</td><td><div><table><tr><td style="font-weight:bold;vertical-align:top;">author</td><td style="vertical-align:top;">:</td><td><div>Your Name &lt;you@example.com&gt;</div></td></tr><tr><td style="font-weight:bold;vertical-align:top;">copyright</td><td style="vertical-align:top;">:</td><td><div>Copyright 2011</div></td></tr><tr><td style="font-weight:bold;vertical-align:top;">description</td><td style="vertical-align:top;">:</td><td><div>a cool new app</div></td></tr><tr><td style="font-weight:bold;vertical-align:top;">generator</td><td style="vertical-align:top;">:</td><td><div>Web2py Web Framework</div></td></tr><tr><td style="font-weight:bold;vertical-align:top;">keywords</td><td style="vertical-align:top;">:</td><td><div>web2py, python, framework</div></td></tr></table></div></td></tr><tr><td style="font-weight:bold;vertical-align:top;">models_to_run</td><td style="vertical-align:top;">:</td><td><div><table><tr><td><div>^\\w+\\.py$</div></td></tr><tr><td><div>^pedido/\\w+\\.py$</div></td></tr><tr><td><div>^pedido/pedido/\\w+\\.py$</div></td></tr></table></div></td></tr><tr><td style="font-weight:bold;vertical-align:top;">postprocessing</td><td style="vertical-align:top;">:</td><td><div><table></table></div></td></tr><tr><td style="font-weight:bold;vertical-align:top;">session_client</td><td style="vertical-align:top;">:</td><td><div>127.0.0.1</div></td></tr><tr><td style="font-weight:bold;vertical-align:top;">session_cookie_compression_level</td><td style="vertical-align:top;">:</td><td><div>None</div></td></tr><tr><td style="font-weight:bold;vertical-align:top;">session_cookie_expires</td><td style="vertical-align:top;">:</td><td><div>None</div></td></tr><tr><td style="font-weight:bold;vertical-align:top;">session_cookie_key</td><td style="vertical-align:top;">:</td><td><div>None</div></td></tr><tr><td style="font-weight:bold;vertical-align:top;">session_data_name</td><td style="vertical-align:top;">:</td><td><div>session_data_final</div></td></tr><tr><td style="font-weight:bold;vertical-align:top;">session_file</td><td style="vertical-align:top;">:</td><td><div>&lt;open file &#x27;C:\\\\Users\\\\angel\\\\Desktop\\\\sql\\\\web2py\\\\applications\\\\FINAL\\\\sessions\\\\127.0.0.1-eae12f5c-4d21-4ad7-a8e8-8294737762a6&#x27;, mode &#x27;rb+&#x27; at 0x073E3078&gt;</div></td></tr><tr><td style="font-weight:bold;vertical-align:top;">session_filename</td><td style="vertical-align:top;">:</td><td><div>C:\\Users\\angel\\Desktop\\sql\\web2py\\applications\\FINAL\\sessions\\127.0.0.1-eae12f5c-4d21-4ad7-a8e8-8294737762a6</div></td></tr><tr><td style="font-weight:bold;vertical-align:top;">session_hash</td><td style="vertical-align:top;">:</td><td><div>46a5aeecc986f0d72b572e2ad6edf7a3</div></td></tr><tr><td style="font-weight:bold;vertical-align:top;">session_id</td><td style="vertical-align:top;">:</td><td><div>127.0.0.1-eae12f5c-4d21-4ad7-a8e8-8294737762a6</div></td></tr><tr><td style="font-weight:bold;vertical-align:top;">session_id_name</td><td style="vertical-align:top;">:</td><td><div>session_id_final</div></td></tr><tr><td style="font-weight:bold;vertical-align:top;">session_locked</td><td style="vertical-align:top;">:</td><td><div>True</div></td></tr><tr><td style="font-weight:bold;vertical-align:top;">session_masterapp</td><td style="vertical-align:top;">:</td><td><div>FINAL</div></td></tr><tr><td style="font-weight:bold;vertical-align:top;">session_new</td><td style="vertical-align:top;">:</td><td><div>False</div></td></tr><tr><td style="font-weight:bold;vertical-align:top;">session_storage_type</td><td style="vertical-align:top;">:</td><td><div>file</div></td></tr><tr><td style="font-weight:bold;vertical-align:top;">status</td><td style="vertical-align:top;">:</td><td><div>200</div></td></tr><tr><td style="font-weight:bold;vertical-align:top;">subtitle</td><td style="vertical-align:top;">:</td><td><div>Adaptame!</div></td></tr><tr><td style="font-weight:bold;vertical-align:top;">title</td><td style="vertical-align:top;">:</td><td><div>Final</div></td></tr><tr><td style="font-weight:bold;vertical-align:top;">view</td><td style="vertical-align:top;">:</td><td><div>pedido/pedido.html</div></td></tr></table></div>'
tRp126
sS'locals'
p127
(dp128
S'self'
p129
S'<Table sale (id,invoice,creditcard,buyer,product...e,created_on,created_by,modified_on,modified_by)>'
p130
sS'key'
p131
S"'nombre'"
p132
sssS'traceback'
p133
S'Traceback (most recent call last):\n  File "/home/mdipierro/make_web2py/web2py/gluon/restricted.py", line 220, in restricted\n  File "C:\\Users\\angel\\Desktop\\sql\\web2py\\applications\\FINAL\\controllers/pedido.py", line 587, in <module>\n  File "/home/mdipierro/make_web2py/web2py/gluon/globals.py", line 385, in <lambda>\n  File "C:\\Users\\angel\\Desktop\\sql\\web2py\\applications\\FINAL\\controllers/pedido.py", line 39, in pedido\n    db.sale.nombre,\n  File "/home/mdipierro/make_web2py/web2py/gluon/dal.py", line 8912, in __getitem__\nAttributeError: \'Table\' object has no attribute \'nombre\'\n'
p134
s.