(dp1
S'output'
p2
S"<class 'socket.gaierror'> [Errno -2] Name or service not known"
p3
sS'layer'
p4
S'/home/angel/web2py/applications/admin/controllers/pythonanywhere.py'
p5
sS'code'
p6
S'# -*- coding: utf-8 -*-\r\nimport base64\r\nimport os\r\nimport re\r\nimport gzip\r\nimport tarfile\r\ntry:\r\n    from cStringIO import StringIO\r\nexcept ImportError:\r\n    from StringIO import StringIO\r\nfrom xmlrpclib import ProtocolError\r\nfrom gluon.contrib.simplejsonrpc import ServerProxy\r\n\r\n\r\ndef deploy():\r\n    response.title = T(\'Deploy to pythonanywhere\')\r\n    return {}\r\n\r\n\r\ndef create_account():\r\n    """ Create a PythonAnywhere account """\r\n    if not request.vars:\r\n        raise HTTP(400)\r\n    \r\n    if request.vars.username and request.vars.web2py_admin_password:\r\n        # Check if web2py is already there otherwise we get an error 500 too.\r\n        client = ServerProxy(\'https://%(username)s:%(web2py_admin_password)s@%(username)s.pythonanywhere.com/admin/webservices/call/jsonrpc\' % request.vars)\r\n        try:\r\n            if client.login() is True:\r\n                return response.json({\'status\': \'ok\'})\r\n        except ProtocolError as error:\r\n            pass\r\n\r\n    import urllib, urllib2\r\n    url = \'https://www.pythonanywhere.com/api/web2py/create_account\'\r\n    data = urllib.urlencode(request.vars)\r\n    req = urllib2.Request(url, data)\r\n    \r\n    try:\r\n        reply = urllib2.urlopen(req)\r\n    except urllib2.HTTPError as error:\r\n        if error.code == 400:\r\n            reply = error\r\n        elif error.code == 500:\r\n            return response.json({\'status\':\'error\', \'errors\':{\'username\': [\'An App other than web2py is installed in the domain %(username)s.pythonanywhere.com\' % request.vars]}})\r\n        else:\r\n            raise\r\n    response.headers[\'Content-Type\'] = \'application/json\'\r\n    return reply.read()\r\n\r\n\r\ndef list_apps():\r\n    """ Get a list of apps both remote and local """\r\n    if not request.vars.username or not request.vars.password:\r\n        raise HTTP(400)\r\n    client = ServerProxy(\'https://%(username)s:%(password)s@%(username)s.pythonanywhere.com/admin/webservices/call/jsonrpc\' % request.vars)\r\n    regex = re.compile(\'^\\w+$\')\r\n    local = [f for f in os.listdir(apath(r=request)) if regex.match(f)]\r\n    try:\r\n        pythonanywhere = client.list_apps()\r\n    except ProtocolError as error:\r\n        raise HTTP(error.errcode)\r\n    return response.json({\'local\': local, \'pythonanywhere\': pythonanywhere})\r\n\r\n\r\ndef bulk_install():\r\n    """ Install a list of apps """\r\n\r\n    def b64pack(app):\r\n        """\r\n        Given an app\'s name, return the base64 representation of its packed version.\r\n        """\r\n        folder = apath(app, r=request)\r\n        tmpfile = StringIO()\r\n        tar = tarfile.TarFile(fileobj=tmpfile, mode=\'w\')\r\n        try:\r\n            filenames = listdir(folder, \'^[\\w\\.\\-]+$\', add_dirs=True, \r\n                                exclude_content_from=[\'cache\', \'sessions\', \'errors\'])\r\n            for fname in filenames:\r\n                tar.add(os.path.join(folder, fname), fname, False)\r\n        finally:\r\n            tar.close()\r\n        tmpfile.seek(0)\r\n        gzfile = StringIO()\r\n        w2pfp = gzip.GzipFile(fileobj=gzfile, mode=\'wb\')\r\n        w2pfp.write(tmpfile.read())\r\n        w2pfp.close()\r\n        gzfile.seek(0)\r\n        return base64.b64encode(gzfile.read())\r\n\r\n    request.vars.apps = request.vars[\'apps[]\']\r\n    if not request.vars.apps or not request.vars.username or not request.vars.password:\r\n        raise HTTP(400)\r\n    if not isinstance(request.vars.apps, list):\r\n        request.vars.apps = [request.vars.apps]  # Only one app selected\r\n\r\n    client = ServerProxy(\'https://%(username)s:%(password)s@%(username)s.pythonanywhere.com/admin/webservices/call/jsonrpc\' % request.vars)\r\n\r\n    for app in request.vars.apps:\r\n        try:\r\n            client.install(app, app+\'.w2p\', b64pack(app))\r\n        except ProtocolError as error:\r\n            raise HTTP(error.errcode)\r\n\r\n    return response.json({\'status\': \'ok\'}) \r\n\nresponse._vars=response._caller(create_account)\n'
p7
sS'snapshot'
p8
(dp9
S'exception'
p10
(dp11
S'__module__'
p12
S"'socket'"
p13
sS'__getslice__'
p14
S"<method-wrapper '__getslice__' of gaierror object>"
p15
sS'__str__'
p16
S"<method-wrapper '__str__' of gaierror object>"
p17
sS'__reduce__'
p18
S'<built-in method __reduce__ of gaierror object>'
p19
sS'__dict__'
p20
S'{}'
p21
sS'__sizeof__'
p22
S'<built-in method __sizeof__ of gaierror object>'
p23
sS'__weakref__'
p24
S'None'
p25
sS'__init__'
p26
S"<method-wrapper '__init__' of gaierror object>"
p27
sS'__setattr__'
p28
S"<method-wrapper '__setattr__' of gaierror object>"
p29
sS'__reduce_ex__'
p30
S'<built-in method __reduce_ex__ of gaierror object>'
p31
sS'__new__'
p32
S'<built-in method __new__ of type object>'
p33
sS'errno'
p34
S'-2'
p35
sS'__format__'
p36
S'<built-in method __format__ of gaierror object>'
p37
sS'__class__'
p38
S"<class 'socket.gaierror'>"
p39
sS'filename'
p40
S'None'
p41
sS'__doc__'
p42
S'None'
p43
sS'__getitem__'
p44
S"<method-wrapper '__getitem__' of gaierror object>"
p45
sS'__setstate__'
p46
S'<built-in method __setstate__ of gaierror object>'
p47
sS'__getattribute__'
p48
S"<method-wrapper '__getattribute__' of gaierror object>"
p49
sS'args'
p50
S"(-2, 'Name or service not known')"
p51
sS'__subclasshook__'
p52
S'<built-in method __subclasshook__ of type object>'
p53
sS'__unicode__'
p54
S'<built-in method __unicode__ of gaierror object>'
p55
sS'strerror'
p56
S"'Name or service not known'"
p57
sS'__delattr__'
p58
S"<method-wrapper '__delattr__' of gaierror object>"
p59
sS'__repr__'
p60
S"<method-wrapper '__repr__' of gaierror object>"
p61
sS'__hash__'
p62
S"<method-wrapper '__hash__' of gaierror object>"
p63
ssS'evalue'
p64
S'[Errno -2] Name or service not known'
p65
sS'request'
p66
cgluon.html
XML_unpickle
p67
(S's\xd5Z\x00\x00<div><table><tr><td style="font-weight:bold;vertical-align:top;">ajax</td><td style="vertical-align:top;">:</td><td><div>True</div></td></tr><tr><td style="font-weight:bold;vertical-align:top;">application</td><td style="vertical-align:top;">:</td><td><div>admin</div></td></tr><tr><td style="font-weight:bold;vertical-align:top;">args</td><td style="vertical-align:top;">:</td><td><div><table></table></div></td></tr><tr><td style="font-weight:bold;vertical-align:top;">cid</td><td style="vertical-align:top;">:</td><td><div>None</div></td></tr><tr><td style="font-weight:bold;vertical-align:top;">client</td><td style="vertical-align:top;">:</td><td><div>127.0.0.1</div></td></tr><tr><td style="font-weight:bold;vertical-align:top;">controller</td><td style="vertical-align:top;">:</td><td><div>pythonanywhere</div></td></tr><tr><td style="font-weight:bold;vertical-align:top;">cookies</td><td style="vertical-align:top;">:</td><td><div><table><tr><td style="font-weight:bold;vertical-align:top;">session_id_admin</td><td style="vertical-align:top;">:</td><td><div>127.0.0.1-6f730d47-2764-42fd-ac4a-22a159079d02<table><tr><td style="font-weight:bold;vertical-align:top;">comment</td><td style="vertical-align:top;">:</td><td><div></div></td></tr><tr><td style="font-weight:bold;vertical-align:top;">domain</td><td style="vertical-align:top;">:</td><td><div></div></td></tr><tr><td style="font-weight:bold;vertical-align:top;">expires</td><td style="vertical-align:top;">:</td><td><div></div></td></tr><tr><td style="font-weight:bold;vertical-align:top;">httponly</td><td style="vertical-align:top;">:</td><td><div></div></td></tr><tr><td style="font-weight:bold;vertical-align:top;">max-age</td><td style="vertical-align:top;">:</td><td><div></div></td></tr><tr><td style="font-weight:bold;vertical-align:top;">path</td><td style="vertical-align:top;">:</td><td><div></div></td></tr><tr><td style="font-weight:bold;vertical-align:top;">secure</td><td style="vertical-align:top;">:</td><td><div></div></td></tr><tr><td style="font-weight:bold;vertical-align:top;">version</td><td style="vertical-align:top;">:</td><td><div></div></td></tr></table></div></td></tr><tr><td style="font-weight:bold;vertical-align:top;">session_id_welcome</td><td style="vertical-align:top;">:</td><td><div>127.0.0.1-fb923e94-035a-4da1-864c-20665c14a5e1<table><tr><td style="font-weight:bold;vertical-align:top;">comment</td><td style="vertical-align:top;">:</td><td><div></div></td></tr><tr><td style="font-weight:bold;vertical-align:top;">domain</td><td style="vertical-align:top;">:</td><td><div></div></td></tr><tr><td style="font-weight:bold;vertical-align:top;">expires</td><td style="vertical-align:top;">:</td><td><div></div></td></tr><tr><td style="font-weight:bold;vertical-align:top;">httponly</td><td style="vertical-align:top;">:</td><td><div></div></td></tr><tr><td style="font-weight:bold;vertical-align:top;">max-age</td><td style="vertical-align:top;">:</td><td><div></div></td></tr><tr><td style="font-weight:bold;vertical-align:top;">path</td><td style="vertical-align:top;">:</td><td><div></div></td></tr><tr><td style="font-weight:bold;vertical-align:top;">secure</td><td style="vertical-align:top;">:</td><td><div></div></td></tr><tr><td style="font-weight:bold;vertical-align:top;">version</td><td style="vertical-align:top;">:</td><td><div></div></td></tr></table></div></td></tr></table></div></td></tr><tr><td style="font-weight:bold;vertical-align:top;">env</td><td style="vertical-align:top;">:</td><td><div><table><tr><td style="font-weight:bold;vertical-align:top;">CONTENT_LENGTH</td><td style="vertical-align:top;">:</td><td><div>132</div></td></tr><tr><td style="font-weight:bold;vertical-align:top;">CONTENT_TYPE</td><td style="vertical-align:top;">:</td><td><div>application/x-www-form-urlencoded; charset=UTF-8</div></td></tr><tr><td style="font-weight:bold;vertical-align:top;">HTTP_ACCEPT</td><td style="vertical-align:top;">:</td><td><div>application/json, text/javascript, */*; q=0.01</div></td></tr><tr><td style="font-weight:bold;vertical-align:top;">HTTP_ACCEPT_ENCODING</td><td style="vertical-align:top;">:</td><td><div>gzip, deflate</div></td></tr><tr><td style="font-weight:bold;vertical-align:top;">HTTP_ACCEPT_LANGUAGE</td><td style="vertical-align:top;">:</td><td><div>en-US,en;q=0.5</div></td></tr><tr><td style="font-weight:bold;vertical-align:top;">HTTP_CONNECTION</td><td style="vertical-align:top;">:</td><td><div>keep-alive</div></td></tr><tr><td style="font-weight:bold;vertical-align:top;">HTTP_CONTENT_LENGTH</td><td style="vertical-align:top;">:</td><td><div>132</div></td></tr><tr><td style="font-weight:bold;vertical-align:top;">HTTP_CONTENT_TYPE</td><td style="vertical-align:top;">:</td><td><div>application/x-www-form-urlencoded; charset=UTF-8</div></td></tr><tr><td style="font-weight:bold;vertical-align:top;">HTTP_COOKIE</td><td style="vertical-align:top;">:</td><td><div>session_id_welcome=127.0.0.1-fb923e94-035a-4da1-864c-20665c14a5e1; session_id_admin=127.0.0.1-6f730d47-2764-42fd-ac4a-22a159079d02</div></td></tr><tr><td style="font-weight:bold;vertical-align:top;">HTTP_HOST</td><td style="vertical-align:top;">:</td><td><div>127.0.0.1:8000</div></td></tr><tr><td style="font-weight:bold;vertical-align:top;">HTTP_REFERER</td><td style="vertical-align:top;">:</td><td><div>http://127.0.0.1:8000/admin/pythonanywhere/deploy</div></td></tr><tr><td style="font-weight:bold;vertical-align:top;">HTTP_USER_AGENT</td><td style="vertical-align:top;">:</td><td><div>Mozilla/5.0 (X11; Ubuntu; Linux i686; rv:50.0) Gecko/20100101 Firefox/50.0</div></td></tr><tr><td style="font-weight:bold;vertical-align:top;">HTTP_X_REQUESTED_WITH</td><td style="vertical-align:top;">:</td><td><div>XMLHttpRequest</div></td></tr><tr><td style="font-weight:bold;vertical-align:top;">PATH_INFO</td><td style="vertical-align:top;">:</td><td><div>/admin/pythonanywhere/create_account</div></td></tr><tr><td style="font-weight:bold;vertical-align:top;">QUERY_STRING</td><td style="vertical-align:top;">:</td><td><div></div></td></tr><tr><td style="font-weight:bold;vertical-align:top;">REMOTE_ADDR</td><td style="vertical-align:top;">:</td><td><div>127.0.0.1</div></td></tr><tr><td style="font-weight:bold;vertical-align:top;">REMOTE_PORT</td><td style="vertical-align:top;">:</td><td><div>41422</div></td></tr><tr><td style="font-weight:bold;vertical-align:top;">REQUEST_METHOD</td><td style="vertical-align:top;">:</td><td><div>POST</div></td></tr><tr><td style="font-weight:bold;vertical-align:top;">SCRIPT_NAME</td><td style="vertical-align:top;">:</td><td><div></div></td></tr><tr><td style="font-weight:bold;vertical-align:top;">SERVER_NAME</td><td style="vertical-align:top;">:</td><td><div>angel-Cantiga-ICH9M-Chipset</div></td></tr><tr><td style="font-weight:bold;vertical-align:top;">SERVER_PORT</td><td style="vertical-align:top;">:</td><td><div>8000</div></td></tr><tr><td style="font-weight:bold;vertical-align:top;">SERVER_PROTOCOL</td><td style="vertical-align:top;">:</td><td><div>HTTP/1.1</div></td></tr><tr><td style="font-weight:bold;vertical-align:top;">SERVER_SOFTWARE</td><td style="vertical-align:top;">:</td><td><div>Rocket 1.2.6</div></td></tr><tr><td style="font-weight:bold;vertical-align:top;">app_folders</td><td style="vertical-align:top;">:</td><td><div>set([&#x27;/home/angel/web2py/applications/welcome/&#x27;, &#x27;/home/angel/web2py/applications/admin/&#x27;, &#x27;/home/angel/web2py/applications/examples/&#x27;])</div></td></tr><tr><td style="font-weight:bold;vertical-align:top;">applications_parent</td><td style="vertical-align:top;">:</td><td><div>/home/angel/web2py</div></td></tr><tr><td style="font-weight:bold;vertical-align:top;">cmd_args</td><td style="vertical-align:top;">:</td><td><div><table></table></div></td></tr><tr><td style="font-weight:bold;vertical-align:top;">cmd_options</td><td style="vertical-align:top;">:</td><td><div>&lt;Values at 0xb5328cec: {&#x27;verbose&#x27;: False, &#x27;ip&#x27;: &#x27;127.0.0.1&#x27;, &#x27;debuglevel&#x27;: 30, &#x27;with_scheduler&#x27;: False, &#x27;shutdown_timeout&#x27;: 5, &#x27;taskbar&#x27;: False, &#x27;with_coverage&#x27;: False, &#x27;pid_filename&#x27;: &#x27;httpserver.pid&#x27;, &#x27;maxthreads&#x27;: None, &#x27;softcron&#x27;: False, &#x27;server_name&#x27;: &#x27;angel-Cantiga-ICH9M-Chipset&#x27;, &#x27;bpython&#x27;: False, &#x27;nogui&#x27;: False, &#x27;port&#x27;: 8000, &#x27;print_errors&#x27;: False, &#x27;extcron&#x27;: False, &#x27;runcron&#x27;: False, &#x27;run_system_tests&#x27;: False, &#x27;test&#x27;: None, &#x27;folder&#x27;: &#x27;/home/angel/web2py&#x27;, &#x27;config&#x27;: &#x27;&#x27;, &#x27;minthreads&#x27;: None, &#x27;shell&#x27;: None, &#x27;run&#x27;: &#x27;&#x27;, &#x27;log_filename&#x27;: &#x27;httpserver.log&#x27;, &#x27;profiler_dir&#x27;: None, &#x27;args&#x27;: [&#x27;&#x27;], &#x27;socket_timeout&#x27;: 5, &#x27;ssl_ca_certificate&#x27;: None, &#x27;scheduler&#x27;: None, &#x27;interfaces&#x27;: None, &#x27;ssl_private_key&#x27;: &#x27;&#x27;, &#x27;gae&#x27;: None, &#x27;password&#x27;: &#x27;******&#x27;, &#x27;request_queue_size&#x27;: 5, &#x27;ssl_certificate&#x27;: &#x27;&#x27;, &#x27;cronjob&#x27;: False, &#x27;numthreads&#x27;: None, &#x27;quiet&#x27;: False, &#x27;import_models&#x27;: False, &#x27;timeout&#x27;: 10, &#x27;plain&#x27;: False, &#x27;nobanner&#x27;: False}&gt;</div></td></tr><tr><td style="font-weight:bold;vertical-align:top;">content_length</td><td style="vertical-align:top;">:</td><td><div>132</div></td></tr><tr><td style="font-weight:bold;vertical-align:top;">content_type</td><td style="vertical-align:top;">:</td><td><div>application/x-www-form-urlencoded; charset=UTF-8</div></td></tr><tr><td style="font-weight:bold;vertical-align:top;">db_sessions</td><td style="vertical-align:top;">:</td><td><div>set([])</div></td></tr><tr><td style="font-weight:bold;vertical-align:top;">debugging</td><td style="vertical-align:top;">:</td><td><div>False</div></td></tr><tr><td style="font-weight:bold;vertical-align:top;">gluon_parent</td><td style="vertical-align:top;">:</td><td><div>/home/angel/web2py</div></td></tr><tr><td style="font-weight:bold;vertical-align:top;">http_accept</td><td style="vertical-align:top;">:</td><td><div>application/json, text/javascript, */*; q=0.01</div></td></tr><tr><td style="font-weight:bold;vertical-align:top;">http_accept_encoding</td><td style="vertical-align:top;">:</td><td><div>gzip, deflate</div></td></tr><tr><td style="font-weight:bold;vertical-align:top;">http_accept_language</td><td style="vertical-align:top;">:</td><td><div>en-US,en;q=0.5</div></td></tr><tr><td style="font-weight:bold;vertical-align:top;">http_connection</td><td style="vertical-align:top;">:</td><td><div>keep-alive</div></td></tr><tr><td style="font-weight:bold;vertical-align:top;">http_content_length</td><td style="vertical-align:top;">:</td><td><div>132</div></td></tr><tr><td style="font-weight:bold;vertical-align:top;">http_content_type</td><td style="vertical-align:top;">:</td><td><div>application/x-www-form-urlencoded; charset=UTF-8</div></td></tr><tr><td style="font-weight:bold;vertical-align:top;">http_cookie</td><td style="vertical-align:top;">:</td><td><div>session_id_welcome=127.0.0.1-fb923e94-035a-4da1-864c-20665c14a5e1; session_id_admin=127.0.0.1-6f730d47-2764-42fd-ac4a-22a159079d02</div></td></tr><tr><td style="font-weight:bold;vertical-align:top;">http_host</td><td style="vertical-align:top;">:</td><td><div>127.0.0.1:8000</div></td></tr><tr><td style="font-weight:bold;vertical-align:top;">http_referer</td><td style="vertical-align:top;">:</td><td><div>http://127.0.0.1:8000/admin/pythonanywhere/deploy</div></td></tr><tr><td style="font-weight:bold;vertical-align:top;">http_user_agent</td><td style="vertical-align:top;">:</td><td><div>Mozilla/5.0 (X11; Ubuntu; Linux i686; rv:50.0) Gecko/20100101 Firefox/50.0</div></td></tr><tr><td style="font-weight:bold;vertical-align:top;">http_x_requested_with</td><td style="vertical-align:top;">:</td><td><div>XMLHttpRequest</div></td></tr><tr><td style="font-weight:bold;vertical-align:top;">is_jython</td><td style="vertical-align:top;">:</td><td><div>False</div></td></tr><tr><td style="font-weight:bold;vertical-align:top;">is_pypy</td><td style="vertical-align:top;">:</td><td><div>False</div></td></tr><tr><td style="font-weight:bold;vertical-align:top;">is_source</td><td style="vertical-align:top;">:</td><td><div>True</div></td></tr><tr><td style="font-weight:bold;vertical-align:top;">local_hosts</td><td style="vertical-align:top;">:</td><td><div><table><tr><td><div>::1</div></td></tr><tr><td><div>127.0.1.1</div></td></tr><tr><td><div>angel-Cantiga-ICH9M-Chipset</div></td></tr><tr><td><div>::ffff:127.0.0.1</div></td></tr><tr><td><div>127.0.0.1</div></td></tr></table></div></td></tr><tr><td style="font-weight:bold;vertical-align:top;">path_info</td><td style="vertical-align:top;">:</td><td><div>/admin/pythonanywhere/create_account</div></td></tr><tr><td style="font-weight:bold;vertical-align:top;">query_string</td><td style="vertical-align:top;">:</td><td><div></div></td></tr><tr><td style="font-weight:bold;vertical-align:top;">remote_addr</td><td style="vertical-align:top;">:</td><td><div>127.0.0.1</div></td></tr><tr><td style="font-weight:bold;vertical-align:top;">remote_port</td><td style="vertical-align:top;">:</td><td><div>41422</div></td></tr><tr><td style="font-weight:bold;vertical-align:top;">request_method</td><td style="vertical-align:top;">:</td><td><div>POST</div></td></tr><tr><td style="font-weight:bold;vertical-align:top;">request_uri</td><td style="vertical-align:top;">:</td><td><div>/admin/pythonanywhere/create_account</div></td></tr><tr><td style="font-weight:bold;vertical-align:top;">script_name</td><td style="vertical-align:top;">:</td><td><div></div></td></tr><tr><td style="font-weight:bold;vertical-align:top;">server_name</td><td style="vertical-align:top;">:</td><td><div>angel-Cantiga-ICH9M-Chipset</div></td></tr><tr><td style="font-weight:bold;vertical-align:top;">server_port</td><td style="vertical-align:top;">:</td><td><div>8000</div></td></tr><tr><td style="font-weight:bold;vertical-align:top;">server_protocol</td><td style="vertical-align:top;">:</td><td><div>HTTP/1.1</div></td></tr><tr><td style="font-weight:bold;vertical-align:top;">server_software</td><td style="vertical-align:top;">:</td><td><div>Rocket 1.2.6</div></td></tr><tr><td style="font-weight:bold;vertical-align:top;">web2py_path</td><td style="vertical-align:top;">:</td><td><div>/home/angel/web2py</div></td></tr><tr><td style="font-weight:bold;vertical-align:top;">web2py_version</td><td style="vertical-align:top;">:</td><td><div>2.14.6-stable+timestamp.2016.05.10.00.21.47</div></td></tr><tr><td style="font-weight:bold;vertical-align:top;">wsgi.errors</td><td style="vertical-align:top;">:</td><td><div>&lt;open file &#x27;&lt;stderr&gt;&#x27;, mode &#x27;w&#x27; at 0xb74830d0&gt;</div></td></tr><tr><td style="font-weight:bold;vertical-align:top;">wsgi.file_wrapper</td><td style="vertical-align:top;">:</td><td><div>&lt;class wsgiref.util.FileWrapper at 0xb6155fbc&gt;</div></td></tr><tr><td style="font-weight:bold;vertical-align:top;">wsgi.input</td><td style="vertical-align:top;">:</td><td><div>&lt;socket._fileobject object at 0xb35724ac&gt;</div></td></tr><tr><td style="font-weight:bold;vertical-align:top;">wsgi.multiprocess</td><td style="vertical-align:top;">:</td><td><div>False</div></td></tr><tr><td style="font-weight:bold;vertical-align:top;">wsgi.multithread</td><td style="vertical-align:top;">:</td><td><div>True</div></td></tr><tr><td style="font-weight:bold;vertical-align:top;">wsgi.run_once</td><td style="vertical-align:top;">:</td><td><div>False</div></td></tr><tr><td style="font-weight:bold;vertical-align:top;">wsgi.url_scheme</td><td style="vertical-align:top;">:</td><td><div>http</div></td></tr><tr><td style="font-weight:bold;vertical-align:top;">wsgi.version</td><td style="vertical-align:top;">:</td><td><div><table><tr><td><div>1</div></td></tr><tr><td><div>0</div></td></tr></table></div></td></tr><tr><td style="font-weight:bold;vertical-align:top;">wsgi_errors</td><td style="vertical-align:top;">:</td><td><div>&lt;open file &#x27;&lt;stderr&gt;&#x27;, mode &#x27;w&#x27; at 0xb74830d0&gt;</div></td></tr><tr><td style="font-weight:bold;vertical-align:top;">wsgi_file_wrapper</td><td style="vertical-align:top;">:</td><td><div>&lt;class wsgiref.util.FileWrapper at 0xb6155fbc&gt;</div></td></tr><tr><td style="font-weight:bold;vertical-align:top;">wsgi_input</td><td style="vertical-align:top;">:</td><td><div>&lt;socket._fileobject object at 0xb35724ac&gt;</div></td></tr><tr><td style="font-weight:bold;vertical-align:top;">wsgi_multiprocess</td><td style="vertical-align:top;">:</td><td><div>False</div></td></tr><tr><td style="font-weight:bold;vertical-align:top;">wsgi_multithread</td><td style="vertical-align:top;">:</td><td><div>True</div></td></tr><tr><td style="font-weight:bold;vertical-align:top;">wsgi_run_once</td><td style="vertical-align:top;">:</td><td><div>False</div></td></tr><tr><td style="font-weight:bold;vertical-align:top;">wsgi_url_scheme</td><td style="vertical-align:top;">:</td><td><div>http</div></td></tr><tr><td style="font-weight:bold;vertical-align:top;">wsgi_version</td><td style="vertical-align:top;">:</td><td><div><table><tr><td><div>1</div></td></tr><tr><td><div>0</div></td></tr></table></div></td></tr></table></div></td></tr><tr><td style="font-weight:bold;vertical-align:top;">extension</td><td style="vertical-align:top;">:</td><td><div>html</div></td></tr><tr><td style="font-weight:bold;vertical-align:top;">folder</td><td style="vertical-align:top;">:</td><td><div>/home/angel/web2py/applications/admin/</div></td></tr><tr><td style="font-weight:bold;vertical-align:top;">function</td><td style="vertical-align:top;">:</td><td><div>create_account</div></td></tr><tr><td style="font-weight:bold;vertical-align:top;">global_settings</td><td style="vertical-align:top;">:</td><td><div><table><tr><td style="font-weight:bold;vertical-align:top;">app_folders</td><td style="vertical-align:top;">:</td><td><div>set([&#x27;/home/angel/web2py/applications/welcome/&#x27;, &#x27;/home/angel/web2py/applications/admin/&#x27;, &#x27;/home/angel/web2py/applications/examples/&#x27;])</div></td></tr><tr><td style="font-weight:bold;vertical-align:top;">applications_parent</td><td style="vertical-align:top;">:</td><td><div>/home/angel/web2py</div></td></tr><tr><td style="font-weight:bold;vertical-align:top;">cmd_args</td><td style="vertical-align:top;">:</td><td><div><table></table></div></td></tr><tr><td style="font-weight:bold;vertical-align:top;">cmd_options</td><td style="vertical-align:top;">:</td><td><div>&lt;Values at 0xb5328cec: {&#x27;verbose&#x27;: False, &#x27;ip&#x27;: &#x27;127.0.0.1&#x27;, &#x27;debuglevel&#x27;: 30, &#x27;with_scheduler&#x27;: False, &#x27;shutdown_timeout&#x27;: 5, &#x27;taskbar&#x27;: False, &#x27;with_coverage&#x27;: False, &#x27;pid_filename&#x27;: &#x27;httpserver.pid&#x27;, &#x27;maxthreads&#x27;: None, &#x27;softcron&#x27;: False, &#x27;server_name&#x27;: &#x27;angel-Cantiga-ICH9M-Chipset&#x27;, &#x27;bpython&#x27;: False, &#x27;nogui&#x27;: False, &#x27;port&#x27;: 8000, &#x27;print_errors&#x27;: False, &#x27;extcron&#x27;: False, &#x27;runcron&#x27;: False, &#x27;run_system_tests&#x27;: False, &#x27;test&#x27;: None, &#x27;folder&#x27;: &#x27;/home/angel/web2py&#x27;, &#x27;config&#x27;: &#x27;&#x27;, &#x27;minthreads&#x27;: None, &#x27;shell&#x27;: None, &#x27;run&#x27;: &#x27;&#x27;, &#x27;log_filename&#x27;: &#x27;httpserver.log&#x27;, &#x27;profiler_dir&#x27;: None, &#x27;args&#x27;: [&#x27;&#x27;], &#x27;socket_timeout&#x27;: 5, &#x27;ssl_ca_certificate&#x27;: None, &#x27;scheduler&#x27;: None, &#x27;interfaces&#x27;: None, &#x27;ssl_private_key&#x27;: &#x27;&#x27;, &#x27;gae&#x27;: None, &#x27;password&#x27;: &#x27;******&#x27;, &#x27;request_queue_size&#x27;: 5, &#x27;ssl_certificate&#x27;: &#x27;&#x27;, &#x27;cronjob&#x27;: False, &#x27;numthreads&#x27;: None, &#x27;quiet&#x27;: False, &#x27;import_models&#x27;: False, &#x27;timeout&#x27;: 10, &#x27;plain&#x27;: False, &#x27;nobanner&#x27;: False}&gt;</div></td></tr><tr><td style="font-weight:bold;vertical-align:top;">db_sessions</td><td style="vertical-align:top;">:</td><td><div>set([])</div></td></tr><tr><td style="font-weight:bold;vertical-align:top;">debugging</td><td style="vertical-align:top;">:</td><td><div>False</div></td></tr><tr><td style="font-weight:bold;vertical-align:top;">gluon_parent</td><td style="vertical-align:top;">:</td><td><div>/home/angel/web2py</div></td></tr><tr><td style="font-weight:bold;vertical-align:top;">is_jython</td><td style="vertical-align:top;">:</td><td><div>False</div></td></tr><tr><td style="font-weight:bold;vertical-align:top;">is_pypy</td><td style="vertical-align:top;">:</td><td><div>False</div></td></tr><tr><td style="font-weight:bold;vertical-align:top;">is_source</td><td style="vertical-align:top;">:</td><td><div>True</div></td></tr><tr><td style="font-weight:bold;vertical-align:top;">local_hosts</td><td style="vertical-align:top;">:</td><td><div><table><tr><td><div>::1</div></td></tr><tr><td><div>127.0.1.1</div></td></tr><tr><td><div>angel-Cantiga-ICH9M-Chipset</div></td></tr><tr><td><div>::ffff:127.0.0.1</div></td></tr><tr><td><div>127.0.0.1</div></td></tr></table></div></td></tr><tr><td style="font-weight:bold;vertical-align:top;">web2py_version</td><td style="vertical-align:top;">:</td><td><div>2.14.6-stable+timestamp.2016.05.10.00.21.47</div></td></tr></table></div></td></tr><tr><td style="font-weight:bold;vertical-align:top;">is_https</td><td style="vertical-align:top;">:</td><td><div>False</div></td></tr><tr><td style="font-weight:bold;vertical-align:top;">is_local</td><td style="vertical-align:top;">:</td><td><div>True</div></td></tr><tr><td style="font-weight:bold;vertical-align:top;">is_restful</td><td style="vertical-align:top;">:</td><td><div>False</div></td></tr><tr><td style="font-weight:bold;vertical-align:top;">is_scheduler</td><td style="vertical-align:top;">:</td><td><div>False</div></td></tr><tr><td style="font-weight:bold;vertical-align:top;">is_shell</td><td style="vertical-align:top;">:</td><td><div>False</div></td></tr><tr><td style="font-weight:bold;vertical-align:top;">now</td><td style="vertical-align:top;">:</td><td><div>datetime.datetime(2017, 1, 30, 21, 29, 29, 681833)</div></td></tr><tr><td style="font-weight:bold;vertical-align:top;">raw_args</td><td style="vertical-align:top;">:</td><td><div></div></td></tr><tr><td style="font-weight:bold;vertical-align:top;">raw_extension</td><td style="vertical-align:top;">:</td><td><div>None</div></td></tr><tr><td style="font-weight:bold;vertical-align:top;">url</td><td style="vertical-align:top;">:</td><td><div>/admin/pythonanywhere/create_account</div></td></tr><tr><td style="font-weight:bold;vertical-align:top;">utcnow</td><td style="vertical-align:top;">:</td><td><div>datetime.datetime(2017, 1, 31, 0, 29, 29, 681878)</div></td></tr><tr><td style="font-weight:bold;vertical-align:top;">wsgi</td><td style="vertical-align:top;">:</td><td><div>&lt;gluon.main.LazyWSGI object at 0xad8e1c0c&gt;</div></td></tr></table></div>'
tRp68
sS'frames'
p69
(lp70
(dp71
S'file'
p72
S'/home/angel/web2py/gluon/restricted.py'
p73
sS'dump'
p74
(dp75
S'environment'
p76
S"{'A': <class 'gluon.html.A'>, 'ANY_OF': <class 'gluon.validators.ANY_OF'>, 'ASSIGNJS': <function ASSIGNJS>, 'A_button': <function A_button>, 'B': <class 'gluon.html.B'>, 'BEAUTIFY': <class 'gluon.html.BEAUTIFY'>, 'BODY': <class 'gluon.html.BODY'>, 'BR': <class 'gluon.html.BR'>, 'BUTTON': <class 'gluon.html.BUTTON'>, 'CAT': <class 'gluon.html.CAT'>, ...}"
p77
sS'ccode'
p78
S'<code object <module> at 0xad83ea40, file "/home...ons/admin/controllers/pythonanywhere.py", line 2>'
p79
ssS'lnum'
p80
I227
sS'lines'
p81
(dp82
I224
S'            ccode = code'
p83
sI225
S'        else:'
p84
sI226
S'            ccode = compile2(code, layer)'
p85
sI227
S'        exec ccode in environment'
p86
sI228
S'    except HTTP:'
p87
sI229
S'        raise'
p88
sI230
S'    except RestrictedError:'
p89
sI231
S'        # do not encapsulate (obfuscate) the original RestrictedError'
p90
sI222
S'    try:'
p91
sI223
S'        if isinstance(code, types.CodeType):'
p92
ssS'call'
p93
S"(code='# -*- coding: utf-8 -*-\\r\\nimport base64\\r\\nimport o...\\nresponse._vars=response._caller(create_account)\\n', environment={'A': <class 'gluon.html.A'>, 'ANY_OF': <class 'gluon.validators.ANY_OF'>, 'ASSIGNJS': <function ASSIGNJS>, 'A_button': <function A_button>, 'B': <class 'gluon.html.B'>, 'BEAUTIFY': <class 'gluon.html.BEAUTIFY'>, 'BODY': <class 'gluon.html.BODY'>, 'BR': <class 'gluon.html.BR'>, 'BUTTON': <class 'gluon.html.BUTTON'>, 'CAT': <class 'gluon.html.CAT'>, ...}, layer='/home/angel/web2py/applications/admin/controllers/pythonanywhere.py')"
p94
sS'func'
p95
S'restricted'
p96
sa(dp97
g72
S'/home/angel/web2py/applications/admin/controllers/pythonanywhere.py'
p98
sg74
(dp99
sg80
I107
sg81
(dp100
I96
S''
sI97
S"    client = ServerProxy('https://%(username)s:%(password)s@%(username)s.pythonanywhere.com/admin/webservices/call/jsonrpc' % request.vars)"
p101
sI98
S''
sI99
S'    for app in request.vars.apps:'
p102
sI100
S'        try:'
p103
sI101
S"            client.install(app, app+'.w2p', b64pack(app))"
p104
sI102
S'        except ProtocolError as error:'
p105
sI103
S'            raise HTTP(error.errcode)'
p106
sI104
S''
sI105
S"    return response.json({'status': 'ok'})"
p107
ssg93
S'()'
p108
sg95
S'<module>'
p109
sa(dp110
g72
S'/home/angel/web2py/gluon/globals.py'
p111
sg74
(dp112
S'self'
p113
S'undefined'
p114
sS'f'
S'<function create_account>'
p115
ssg80
I417
sg81
(dp116
I416
S'        self._vars = None'
p117
sI417
S'        self._caller = lambda f: f()'
p118
sI418
S'        self._view_environment = None'
p119
sI419
S'        self._custom_commit = None'
p120
sI420
S'        self._custom_rollback = None'
p121
sI421
S"        self.generic_patterns = ['*']"
p122
sI412
S"        self.flash = ''            # used by the default view layout"
p123
sI413
S'        self.meta = Storage()      # used by web2py_ajax.html'
p124
sI414
S'        self.menu = []             # used by the default view layout'
p125
sI415
S'        self.files = []            # used by web2py_ajax.html'
p126
ssg93
S'(f=<function create_account>)'
p127
sg95
S'<lambda>'
p128
sa(dp129
g72
S'/home/angel/web2py/applications/admin/controllers/pythonanywhere.py'
p130
sg74
(dp131
S'builtinTrue'
p132
S'True'
p133
sS'client'
p134
S'<gluon.contrib.simplejsonrpc.ServerProxy object>'
p135
sS'client.login'
p136
S'<function <lambda>>'
p137
ssg80
I29
sg81
(dp138
I32
S'            pass'
p139
sI33
S''
sI24
S''
sI25
S'    if request.vars.username and request.vars.web2py_admin_password:'
p140
sI26
S'        # Check if web2py is already there otherwise we get an error 500 too.'
p141
sI27
S"        client = ServerProxy('https://%(username)s:%(web2py_admin_password)s@%(username)s.pythonanywhere.com/admin/webservices/call/jsonrpc' % request.vars)"
p142
sI28
S'        try:'
p143
sI29
S'            if client.login() is True:'
p144
sI30
S"                return response.json({'status': 'ok'})"
p145
sI31
S'        except ProtocolError as error:'
p146
ssg93
S'()'
p147
sg95
S'create_account'
p148
sa(dp149
g72
S'/home/angel/web2py/gluon/contrib/simplejsonrpc.py'
p150
sg74
(dp151
S'self'
p152
S'<gluon.contrib.simplejsonrpc.ServerProxy object>'
p153
sS'args'
p154
S'()'
p155
sS'self.call'
p156
S'<bound method ServerProxy.call of <gluon.contrib.simplejsonrpc.ServerProxy object>>'
p157
sS'attr'
p158
S"'login'"
p159
ssg80
I108
sg81
(dp160
I103
S'        self.__encoding = encoding'
p161
sI104
S'        self.__verbose = verbose'
p162
sI105
S''
sI106
S'    def __getattr__(self, attr):'
p163
sI107
S'        "pseudo method that can be called"'
p164
sI108
S'        return lambda *args: self.call(attr, *args)'
p165
sI109
S''
sI110
S'    def call(self, method, *args):'
p166
sI111
S'        "JSON RPC communication (method invocation)"'
p167
sI112
S''
ssg93
S'(*args=())'
p168
sg95
g128
sa(dp169
g72
S'/home/angel/web2py/gluon/contrib/simplejsonrpc.py'
p170
sg74
(dp171
S'self'
p172
S'<gluon.contrib.simplejsonrpc.ServerProxy object>'
p173
sS'verbose'
p174
g114
sS'self.__verbose'
p175
S'<function <lambda>>'
p176
ssg80
I125
sg81
(dp177
I128
S'        # store plain request and response for further debugging'
p178
sI129
S'        self.json_request = request'
p179
sI120
S'        # make HTTP request (retry if connection is lost)'
p180
sI121
S'        response = self.__transport.request('
p181
sI122
S'            self.__host,'
p182
sI123
S'            self.__handler,'
p183
sI124
S'            request,'
p184
sI125
S'            verbose=self.__verbose'
p185
sI126
S'        )'
p186
sI127
S''
ssg93
S"(self=<gluon.contrib.simplejsonrpc.ServerProxy object>, method='login', *args=())"
p187
sg95
g93
sa(dp188
g72
S'/usr/lib/python2.7/xmlrpclib.py'
p189
sg74
(dp190
S'self.single_request'
p191
S'<bound method JSONSafeTransport.single_request o...ontrib.simplejsonrpc.JSONSafeTransport instance>>'
p192
sS'request_body'
p193
S'\'{"params": [], "id": 1011459795, "method": "login"}\''
p194
sS'self'
p195
S'<gluon.contrib.simplejsonrpc.JSONSafeTransport instance>'
p196
sS'host'
p197
S"'angel:2003@angel.pythonanywhere.com'"
p198
sS'handler'
p199
S"'/admin/webservices/call/jsonrpc'"
p200
sS'verbose'
p201
S'0'
ssg80
I1273
sg81
(dp202
I1268
S''
sI1269
S'    def request(self, host, handler, request_body, verbose=0):'
p203
sI1270
S'        #retry request once if cached connection has gone cold'
p204
sI1271
S'        for i in (0, 1):'
p205
sI1272
S'            try:'
p206
sI1273
S'                return self.single_request(host, handler, request_body, verbose)'
p207
sI1274
S'            except socket.error, e:'
p208
sI1275
S'                if i or e.errno not in (errno.ECONNRESET, errno.ECONNABORTED, errno.EPIPE):'
p209
sI1276
S'                    raise'
p210
sI1277
S'            except httplib.BadStatusLine: #close after we sent request'
p211
ssg93
S'(self=<gluon.contrib.simplejsonrpc.JSONSafeTransport instance>, host=\'angel:2003@angel.pythonanywhere.com\', handler=\'/admin/webservices/call/jsonrpc\', request_body=\'{"params": [], "id": 1011459795, "method": "login"}\', verbose=0)'
p212
sg95
g66
sa(dp213
g72
S'/usr/lib/python2.7/xmlrpclib.py'
p214
sg74
(dp215
S'self.send_content'
p216
S'<bound method JSONSafeTransport.send_content of ...ontrib.simplejsonrpc.JSONSafeTransport instance>>'
p217
sS'self'
p218
S'<gluon.contrib.simplejsonrpc.JSONSafeTransport instance>'
p219
sS'request_body'
p220
S'\'{"params": [], "id": 1011459795, "method": "login"}\''
p221
sS'h'
S'<httplib.HTTPSConnection instance>'
p222
ssg80
I1301
sg81
(dp223
I1296
S''
sI1297
S'        try:'
p224
sI1298
S'            self.send_request(h, handler, request_body)'
p225
sI1299
S'            self.send_host(h, host)'
p226
sI1300
S'            self.send_user_agent(h)'
p227
sI1301
S'            self.send_content(h, request_body)'
p228
sI1302
S''
sI1303
S'            response = h.getresponse(buffering=True)'
p229
sI1304
S'            if response.status == 200:'
p230
sI1305
S'                self.verbose = verbose'
p231
ssg93
S'(self=<gluon.contrib.simplejsonrpc.JSONSafeTransport instance>, host=\'angel:2003@angel.pythonanywhere.com\', handler=\'/admin/webservices/call/jsonrpc\', request_body=\'{"params": [], "id": 1011459795, "method": "login"}\', verbose=0)'
p232
sg95
S'single_request'
p233
sa(dp234
g72
S'/home/angel/web2py/gluon/contrib/simplejsonrpc.py'
p235
sg74
(dp236
S'connection.endheaders'
p237
S'<bound method HTTPSConnection.endheaders of <httplib.HTTPSConnection instance>>'
p238
sS'connection'
p239
S'<httplib.HTTPSConnection instance>'
p240
ssg80
I62
sg81
(dp241
I64
S'            connection.send(request_body)'
p242
sI65
S'        # todo: add gzip compression'
p243
sI66
S''
sI57
S'    "json wrapper for xmlrpclib transport interfase"'
p244
sI58
S''
sI59
S'    def send_content(self, connection, request_body):'
p245
sI60
S'        connection.putheader("Content-Type", "application/json")'
p246
sI61
S'        connection.putheader("Content-Length", str(len(request_body)))'
p247
sI62
S'        connection.endheaders()'
p248
sI63
S'        if request_body:'
p249
ssg93
S'(self=<gluon.contrib.simplejsonrpc.JSONSafeTransport instance>, connection=<httplib.HTTPSConnection instance>, request_body=\'{"params": [], "id": 1011459795, "method": "login"}\')'
p250
sg95
S'send_content'
p251
sa(dp252
g72
S'/usr/lib/python2.7/httplib.py'
p253
sg74
(dp254
S'message_body'
p255
S'None'
p256
sS'self'
p257
S'<httplib.HTTPSConnection instance>'
p258
sS'self._send_output'
p259
S'<bound method HTTPSConnection._send_output of <httplib.HTTPSConnection instance>>'
p260
ssg80
I1013
sg81
(dp261
I1008
S'        """'
p262
sI1009
S'        if self.__state == _CS_REQ_STARTED:'
p263
sI1010
S'            self.__state = _CS_REQ_SENT'
p264
sI1011
S'        else:'
p265
sI1012
S'            raise CannotSendHeader()'
p266
sI1013
S'        self._send_output(message_body)'
p267
sI1014
S''
sI1015
S'    def request(self, method, url, body=None, headers={}):'
p268
sI1016
S'        """Send a complete request to the server."""'
p269
sI1017
S'        self._send_request(method, url, body, headers)'
p270
ssg93
S'(self=<httplib.HTTPSConnection instance>, message_body=None)'
p271
sg95
S'endheaders'
p272
sa(dp273
g72
S'/usr/lib/python2.7/httplib.py'
p274
sg74
(dp275
S'msg'
p276
S"'POST /admin/webservices/call/jsonrpc HTTP/1.1\\r\\nH...nt-Type: application/json\\r\\nContent-Length: 51\\r\\n\\r\\n'"
p277
sS'self'
p278
S'<httplib.HTTPSConnection instance>'
p279
sS'self.send'
p280
S'<bound method HTTPSConnection.send of <httplib.HTTPSConnection instance>>'
p281
ssg80
I864
sg81
(dp282
I864
S'        self.send(msg)'
p283
sI865
S'        if message_body is not None:'
p284
sI866
S'            #message_body was not a string (i.e. it is a file) and'
p285
sI867
S'            #we must run the risk of Nagle'
p286
sI868
S'            self.send(message_body)'
p287
sI859
S'        # it will avoid performance problems caused by the interaction'
p288
sI860
S'        # between delayed ack and the Nagle algorithm.'
p289
sI861
S'        if isinstance(message_body, str):'
p290
sI862
S'            msg += message_body'
p291
sI863
S'            message_body = None'
p292
ssg93
S'(self=<httplib.HTTPSConnection instance>, message_body=None)'
p293
sg95
S'_send_output'
p294
sa(dp295
g72
S'/usr/lib/python2.7/httplib.py'
p296
sg74
(dp297
S'self'
p298
S'<httplib.HTTPSConnection instance>'
p299
sS'self.connect'
p300
S'<bound method HTTPSConnection.connect of <httplib.HTTPSConnection instance>>'
p301
ssg80
I826
sg81
(dp302
I821
S''
sI822
S'    def send(self, data):'
p303
sI823
S'        """Send `data\' to the server."""'
p304
sI824
S'        if self.sock is None:'
p305
sI825
S'            if self.auto_open:'
p306
sI826
S'                self.connect()'
p307
sI827
S'            else:'
p308
sI828
S'                raise NotConnected()'
p309
sI829
S''
sI830
S'        if self.debuglevel > 0:'
p310
ssg93
S"(self=<httplib.HTTPSConnection instance>, data='POST /admin/webservices/call/jsonrpc HTTP/1.1\\r\\nH...nt-Type: application/json\\r\\nContent-Length: 51\\r\\n\\r\\n')"
p311
sg95
S'send'
p312
sa(dp313
g72
S'/usr/lib/python2.7/httplib.py'
p314
sg74
(dp315
S'self.timeout'
p316
S'<object object>'
p317
sS'self'
p318
S'<httplib.HTTPSConnection instance>'
p319
sS'self.source_address'
p320
S'None'
p321
ssg80
I1216
sg81
(dp322
I1216
S'                                            self.timeout, self.source_address)'
p323
sI1217
S'            if self._tunnel_host:'
p324
sI1218
S'                self.sock = sock'
p325
sI1219
S'                self._tunnel()'
p326
sI1220
S'            self.sock = ssl.wrap_socket(sock, self.key_file, self.cert_file)'
p327
sI1211
S''
sI1212
S'        def connect(self):'
p328
sI1213
S'            "Connect to a host on a given (SSL) port."'
p329
sI1214
S''
sI1215
S'            sock = socket.create_connection((self.host, self.port),'
p330
ssg93
S'(self=<httplib.HTTPSConnection instance>)'
p331
sg95
S'connect'
p332
sa(dp333
g72
S'/usr/lib/python2.7/socket.py'
p334
sg74
(dp335
S'global SOCK_STREAM'
p336
S'1'
sS'res'
p337
g114
sS'host'
p338
S"'angel.pythonanywhere.com'"
p339
sS'port'
p340
S'443'
p341
sS'global getaddrinfo'
p342
S'<built-in function getaddrinfo>'
p343
ssg80
I553
sg81
(dp344
I548
S"    An host of '' or port 0 tells the OS to use the default."
p345
sI549
S'    """'
p346
sI550
S''
sI551
S'    host, port = address'
p347
sI552
S'    err = None'
p348
sI553
S'    for res in getaddrinfo(host, port, 0, SOCK_STREAM):'
p349
sI554
S'        af, socktype, proto, canonname, sa = res'
p350
sI555
S'        sock = None'
p351
sI556
S'        try:'
p352
sI557
S'            sock = socket(af, socktype, proto)'
p353
ssg93
S"(address=('angel.pythonanywhere.com', 443), timeout=<object object>, source_address=None)"
p354
sg95
S'create_connection'
p355
sasS'pyver'
p356
S'Python 2.7.6: /usr/bin/python (prefix: /usr)'
p357
sS'session'
p358
g67
(S's\x11\x04\x00\x00<div><table><tr><td style="font-weight:bold;vertical-align:top;">authorized</td><td style="vertical-align:top;">:</td><td><div>True</div></td></tr><tr><td style="font-weight:bold;vertical-align:top;">check_version</td><td style="vertical-align:top;">:</td><td><div>False</div></td></tr><tr><td style="font-weight:bold;vertical-align:top;">hmac_key</td><td style="vertical-align:top;">:</td><td><div>21538fee-76a6-40be-aefe-9372c3942a98</div></td></tr><tr><td style="font-weight:bold;vertical-align:top;">is_mobile</td><td style="vertical-align:top;">:</td><td><div>auto</div></td></tr><tr><td style="font-weight:bold;vertical-align:top;">last_time</td><td style="vertical-align:top;">:</td><td><div>1485822569.689248</div></td></tr><tr><td style="font-weight:bold;vertical-align:top;">pam_user</td><td style="vertical-align:top;">:</td><td><div>None</div></td></tr><tr><td style="font-weight:bold;vertical-align:top;">token</td><td style="vertical-align:top;">:</td><td><div>e936ece0-a351-46b4-bcb7-3a17d9617c41</div></td></tr></table></div>'
tRp359
sS'etype'
p360
S"<class 'socket.gaierror'>"
p361
sS'date'
p362
S'Mon Jan 30 21:29:29 2017'
p363
sS'response'
p364
g67
(S's\xe9\x1d\x00\x00<div><table><tr><td style="font-weight:bold;vertical-align:top;">body</td><td style="vertical-align:top;">:</td><td><div>&lt;cStringIO.StringO object at 0xad8e1980&gt;</div></td></tr><tr><td style="font-weight:bold;vertical-align:top;">cookies</td><td style="vertical-align:top;">:</td><td><div><table><tr><td style="font-weight:bold;vertical-align:top;">session_id_admin</td><td style="vertical-align:top;">:</td><td><div>127.0.0.1-6f730d47-2764-42fd-ac4a-22a159079d02<table><tr><td style="font-weight:bold;vertical-align:top;">comment</td><td style="vertical-align:top;">:</td><td><div></div></td></tr><tr><td style="font-weight:bold;vertical-align:top;">domain</td><td style="vertical-align:top;">:</td><td><div></div></td></tr><tr><td style="font-weight:bold;vertical-align:top;">expires</td><td style="vertical-align:top;">:</td><td><div></div></td></tr><tr><td style="font-weight:bold;vertical-align:top;">httponly</td><td style="vertical-align:top;">:</td><td><div></div></td></tr><tr><td style="font-weight:bold;vertical-align:top;">max-age</td><td style="vertical-align:top;">:</td><td><div></div></td></tr><tr><td style="font-weight:bold;vertical-align:top;">path</td><td style="vertical-align:top;">:</td><td><div>/</div></td></tr><tr><td style="font-weight:bold;vertical-align:top;">secure</td><td style="vertical-align:top;">:</td><td><div></div></td></tr><tr><td style="font-weight:bold;vertical-align:top;">version</td><td style="vertical-align:top;">:</td><td><div></div></td></tr></table></div></td></tr></table></div></td></tr><tr><td style="font-weight:bold;vertical-align:top;">delimiters</td><td style="vertical-align:top;">:</td><td><div><table><tr><td><div>{{</div></td></tr><tr><td><div>}}</div></td></tr></table></div></td></tr><tr><td style="font-weight:bold;vertical-align:top;">files</td><td style="vertical-align:top;">:</td><td><div><table><tr><td><div>/admin/static/_2.14.6/plugin_multiselect/jquery.multi-select.js</div></td></tr><tr><td><div>/admin/static/_2.14.6/plugin_multiselect/multi-select.css</div></td></tr><tr><td><div>/admin/static/_2.14.6/plugin_multiselect/start.js</div></td></tr><tr><td><div>/admin/static/_2.14.6/plugin_statebutton/js/bootstrap-switch.js</div></td></tr><tr><td><div>/admin/static/_2.14.6/plugin_statebutton/css/bootstrap-switch.css</div></td></tr></table></div></td></tr><tr><td style="font-weight:bold;vertical-align:top;">flash</td><td style="vertical-align:top;">:</td><td><div></div></td></tr><tr><td style="font-weight:bold;vertical-align:top;">form_label_separator</td><td style="vertical-align:top;">:</td><td><div>: </div></td></tr><tr><td style="font-weight:bold;vertical-align:top;">formstyle</td><td style="vertical-align:top;">:</td><td><div>table3cols</div></td></tr><tr><td style="font-weight:bold;vertical-align:top;">generic_patterns</td><td style="vertical-align:top;">:</td><td><div><table><tr><td><div>*</div></td></tr></table></div></td></tr><tr><td style="font-weight:bold;vertical-align:top;">headers</td><td style="vertical-align:top;">:</td><td><div><table><tr><td style="font-weight:bold;vertical-align:top;">X-Powered-By</td><td style="vertical-align:top;">:</td><td><div>web2py</div></td></tr></table></div></td></tr><tr><td style="font-weight:bold;vertical-align:top;">menu</td><td style="vertical-align:top;">:</td><td><div><table><tr><td><div><table><tr><td><div>Site</div></td></tr><tr><td><div>False</div></td></tr><tr><td><div>/admin/default/site</div></td></tr></table></div></td></tr><tr><td><div><table><tr><td><div>Help</div></td></tr><tr><td><div>False</div></td></tr><tr><td><div>/examples/default/documentation</div></td></tr></table></div></td></tr><tr><td><div><table><tr><td><div>Logout</div></td></tr><tr><td><div>False</div></td></tr><tr><td><div>/admin/default/logout</div></td></tr></table></div></td></tr><tr><td><div><table><tr><td><div>Debug</div></td></tr><tr><td><div>False</div></td></tr><tr><td><div>/admin/debug/interact</div></td></tr></table></div></td></tr></table></div></td></tr><tr><td style="font-weight:bold;vertical-align:top;">meta</td><td style="vertical-align:top;">:</td><td><div><table></table></div></td></tr><tr><td style="font-weight:bold;vertical-align:top;">models_to_run</td><td style="vertical-align:top;">:</td><td><div><table><tr><td><div>^\\w+\\.py$</div></td></tr><tr><td><div>^pythonanywhere/\\w+\\.py$</div></td></tr><tr><td><div>^pythonanywhere/create_account/\\w+\\.py$</div></td></tr></table></div></td></tr><tr><td style="font-weight:bold;vertical-align:top;">postprocessing</td><td style="vertical-align:top;">:</td><td><div><table></table></div></td></tr><tr><td style="font-weight:bold;vertical-align:top;">session_client</td><td style="vertical-align:top;">:</td><td><div>127.0.0.1</div></td></tr><tr><td style="font-weight:bold;vertical-align:top;">session_cookie_compression_level</td><td style="vertical-align:top;">:</td><td><div>None</div></td></tr><tr><td style="font-weight:bold;vertical-align:top;">session_cookie_expires</td><td style="vertical-align:top;">:</td><td><div>None</div></td></tr><tr><td style="font-weight:bold;vertical-align:top;">session_data_name</td><td style="vertical-align:top;">:</td><td><div>session_data_admin</div></td></tr><tr><td style="font-weight:bold;vertical-align:top;">session_file</td><td style="vertical-align:top;">:</td><td><div>&lt;open file &#x27;/home/angel/web2py/applications/admin/sessions/0c4/1b7/127.0.0.1-6f730d47-2764-42fd-ac4a-22a159079d02&#x27;, mode &#x27;rb+&#x27; at 0xb53167b0&gt;</div></td></tr><tr><td style="font-weight:bold;vertical-align:top;">session_filename</td><td style="vertical-align:top;">:</td><td><div>/home/angel/web2py/applications/admin/sessions/127.0.0.1-6f730d47-2764-42fd-ac4a-22a159079d02</div></td></tr><tr><td style="font-weight:bold;vertical-align:top;">session_hash</td><td style="vertical-align:top;">:</td><td><div>34ab30f5892f6059c623d0656778e968</div></td></tr><tr><td style="font-weight:bold;vertical-align:top;">session_id</td><td style="vertical-align:top;">:</td><td><div>127.0.0.1-6f730d47-2764-42fd-ac4a-22a159079d02</div></td></tr><tr><td style="font-weight:bold;vertical-align:top;">session_id_name</td><td style="vertical-align:top;">:</td><td><div>session_id_admin</div></td></tr><tr><td style="font-weight:bold;vertical-align:top;">session_locked</td><td style="vertical-align:top;">:</td><td><div>True</div></td></tr><tr><td style="font-weight:bold;vertical-align:top;">session_masterapp</td><td style="vertical-align:top;">:</td><td><div>admin</div></td></tr><tr><td style="font-weight:bold;vertical-align:top;">session_new</td><td style="vertical-align:top;">:</td><td><div>False</div></td></tr><tr><td style="font-weight:bold;vertical-align:top;">session_storage_type</td><td style="vertical-align:top;">:</td><td><div>file</div></td></tr><tr><td style="font-weight:bold;vertical-align:top;">static_version</td><td style="vertical-align:top;">:</td><td><div>2.14.6</div></td></tr><tr><td style="font-weight:bold;vertical-align:top;">static_version_urls</td><td style="vertical-align:top;">:</td><td><div>True</div></td></tr><tr><td style="font-weight:bold;vertical-align:top;">status</td><td style="vertical-align:top;">:</td><td><div>200</div></td></tr><tr><td style="font-weight:bold;vertical-align:top;">subtitle</td><td style="vertical-align:top;">:</td><td><div>admin</div></td></tr><tr><td style="font-weight:bold;vertical-align:top;">title</td><td style="vertical-align:top;">:</td><td><div>create_account </div></td></tr><tr><td style="font-weight:bold;vertical-align:top;">view</td><td style="vertical-align:top;">:</td><td><div>pythonanywhere/create_account.html</div></td></tr></table></div>'
tRp365
sS'locals'
p366
(dp367
S'err'
p368
S'None'
p369
sS'host'
p370
S"'angel.pythonanywhere.com'"
p371
sS'timeout'
p372
S'<object object>'
p373
sS'address'
p374
S"('angel.pythonanywhere.com', 443)"
p375
sS'source_address'
p376
S'None'
p377
sS'port'
p378
S'443'
p379
sssS'traceback'
p380
S'Traceback (most recent call last):\n  File "/home/angel/web2py/gluon/restricted.py", line 227, in restricted\n    exec ccode in environment\n  File "/home/angel/web2py/applications/admin/controllers/pythonanywhere.py", line 107, in <module>\n  File "/home/angel/web2py/gluon/globals.py", line 417, in <lambda>\n    self._caller = lambda f: f()\n  File "/home/angel/web2py/applications/admin/controllers/pythonanywhere.py", line 29, in create_account\n    if client.login() is True:\n  File "/home/angel/web2py/gluon/contrib/simplejsonrpc.py", line 108, in <lambda>\n    return lambda *args: self.call(attr, *args)\n  File "/home/angel/web2py/gluon/contrib/simplejsonrpc.py", line 125, in call\n    verbose=self.__verbose\n  File "/usr/lib/python2.7/xmlrpclib.py", line 1273, in request\n    return self.single_request(host, handler, request_body, verbose)\n  File "/usr/lib/python2.7/xmlrpclib.py", line 1301, in single_request\n    self.send_content(h, request_body)\n  File "/home/angel/web2py/gluon/contrib/simplejsonrpc.py", line 62, in send_content\n    connection.endheaders()\n  File "/usr/lib/python2.7/httplib.py", line 1013, in endheaders\n    self._send_output(message_body)\n  File "/usr/lib/python2.7/httplib.py", line 864, in _send_output\n    self.send(msg)\n  File "/usr/lib/python2.7/httplib.py", line 826, in send\n    self.connect()\n  File "/usr/lib/python2.7/httplib.py", line 1216, in connect\n    self.timeout, self.source_address)\n  File "/usr/lib/python2.7/socket.py", line 553, in create_connection\n    for res in getaddrinfo(host, port, 0, SOCK_STREAM):\ngaierror: [Errno -2] Name or service not known\n'
p381
s.